
STM32ProjectforLab3.elf:     file format elf32-littlearm

Sections:
Idx Name          Size      VMA       LMA       File off  Algn
  0 .isr_vector   0000010c  08000000  08000000  00010000  2**0
                  CONTENTS, ALLOC, LOAD, READONLY, DATA
  1 .text         00001a08  0800010c  0800010c  0001010c  2**2
                  CONTENTS, ALLOC, LOAD, READONLY, CODE
  2 .rodata       00000024  08001b14  08001b14  00011b14  2**2
                  CONTENTS, ALLOC, LOAD, READONLY, DATA
  3 .ARM.extab    00000000  08001b38  08001b38  0002000c  2**0
                  CONTENTS
  4 .ARM          00000000  08001b38  08001b38  0002000c  2**0
                  CONTENTS
  5 .preinit_array 00000000  08001b38  08001b38  0002000c  2**0
                  CONTENTS, ALLOC, LOAD, DATA
  6 .init_array   00000004  08001b38  08001b38  00011b38  2**2
                  CONTENTS, ALLOC, LOAD, DATA
  7 .fini_array   00000004  08001b3c  08001b3c  00011b3c  2**2
                  CONTENTS, ALLOC, LOAD, DATA
  8 .data         0000000c  20000000  08001b40  00020000  2**2
                  CONTENTS, ALLOC, LOAD, DATA
  9 .bss          00000070  2000000c  08001b4c  0002000c  2**2
                  ALLOC
 10 ._user_heap_stack 00000604  2000007c  08001b4c  0002007c  2**0
                  ALLOC
 11 .ARM.attributes 00000029  00000000  00000000  0002000c  2**0
                  CONTENTS, READONLY
 12 .debug_info   000080ab  00000000  00000000  00020035  2**0
                  CONTENTS, READONLY, DEBUGGING, OCTETS
 13 .debug_abbrev 0000158d  00000000  00000000  000280e0  2**0
                  CONTENTS, READONLY, DEBUGGING, OCTETS
 14 .debug_aranges 00000958  00000000  00000000  00029670  2**3
                  CONTENTS, READONLY, DEBUGGING, OCTETS
 15 .debug_ranges 000008a0  00000000  00000000  00029fc8  2**3
                  CONTENTS, READONLY, DEBUGGING, OCTETS
 16 .debug_macro  000161fa  00000000  00000000  0002a868  2**0
                  CONTENTS, READONLY, DEBUGGING, OCTETS
 17 .debug_line   0000935a  00000000  00000000  00040a62  2**0
                  CONTENTS, READONLY, DEBUGGING, OCTETS
 18 .debug_str    00081cbc  00000000  00000000  00049dbc  2**0
                  CONTENTS, READONLY, DEBUGGING, OCTETS
 19 .comment      00000050  00000000  00000000  000cba78  2**0
                  CONTENTS, READONLY
 20 .debug_frame  00002620  00000000  00000000  000cbac8  2**2
                  CONTENTS, READONLY, DEBUGGING, OCTETS

Disassembly of section .text:

0800010c <__do_global_dtors_aux>:
 800010c:	b510      	push	{r4, lr}
 800010e:	4c05      	ldr	r4, [pc, #20]	; (8000124 <__do_global_dtors_aux+0x18>)
 8000110:	7823      	ldrb	r3, [r4, #0]
 8000112:	b933      	cbnz	r3, 8000122 <__do_global_dtors_aux+0x16>
 8000114:	4b04      	ldr	r3, [pc, #16]	; (8000128 <__do_global_dtors_aux+0x1c>)
 8000116:	b113      	cbz	r3, 800011e <__do_global_dtors_aux+0x12>
 8000118:	4804      	ldr	r0, [pc, #16]	; (800012c <__do_global_dtors_aux+0x20>)
 800011a:	f3af 8000 	nop.w
 800011e:	2301      	movs	r3, #1
 8000120:	7023      	strb	r3, [r4, #0]
 8000122:	bd10      	pop	{r4, pc}
 8000124:	2000000c 	.word	0x2000000c
 8000128:	00000000 	.word	0x00000000
 800012c:	08001afc 	.word	0x08001afc

08000130 <frame_dummy>:
 8000130:	b508      	push	{r3, lr}
 8000132:	4b03      	ldr	r3, [pc, #12]	; (8000140 <frame_dummy+0x10>)
 8000134:	b11b      	cbz	r3, 800013e <frame_dummy+0xe>
 8000136:	4903      	ldr	r1, [pc, #12]	; (8000144 <frame_dummy+0x14>)
 8000138:	4803      	ldr	r0, [pc, #12]	; (8000148 <frame_dummy+0x18>)
 800013a:	f3af 8000 	nop.w
 800013e:	bd08      	pop	{r3, pc}
 8000140:	00000000 	.word	0x00000000
 8000144:	20000010 	.word	0x20000010
 8000148:	08001afc 	.word	0x08001afc

0800014c <main>:
/**
  * @brief  The application entry point.
  * @retval int
  */
int main(void)
{
 800014c:	b580      	push	{r7, lr}
 800014e:	af00      	add	r7, sp, #0
  /* USER CODE END 1 */

  /* MCU Configuration--------------------------------------------------------*/

  /* Reset of all peripherals, Initializes the Flash interface and the Systick. */
  HAL_Init();
 8000150:	f000 f9c4 	bl	80004dc <HAL_Init>
  /* USER CODE BEGIN Init */

  /* USER CODE END Init */

  /* Configure the system clock */
  SystemClock_Config();
 8000154:	f000 f81e 	bl	8000194 <SystemClock_Config>
  /* USER CODE BEGIN SysInit */

  /* USER CODE END SysInit */

  /* Initialize all configured peripherals */
  MX_GPIO_Init();
 8000158:	f000 f8a4 	bl	80002a4 <MX_GPIO_Init>
  MX_TIM2_Init();
 800015c:	f000 f856 	bl	800020c <MX_TIM2_Init>
  /* USER CODE BEGIN 2 */
  HAL_TIM_Base_Start_IT(& htim2); /*function to initialize the timer*/
 8000160:	4809      	ldr	r0, [pc, #36]	; (8000188 <main+0x3c>)
 8000162:	f001 f907 	bl	8001374 <HAL_TIM_Base_Start_IT>
  /* USER CODE END 2 */

  /* Infinite loop */
  /* USER CODE BEGIN WHILE */
  setTimer1(1000);
 8000166:	f44f 707a 	mov.w	r0, #1000	; 0x3e8
 800016a:	f000 f8dd 	bl	8000328 <setTimer1>
  while (1)
  {
	  if(timer1_flag == 1)
 800016e:	4b07      	ldr	r3, [pc, #28]	; (800018c <main+0x40>)
 8000170:	681b      	ldr	r3, [r3, #0]
 8000172:	2b01      	cmp	r3, #1
 8000174:	d1fb      	bne.n	800016e <main+0x22>
	  {
		  HAL_GPIO_TogglePin(LED_RED_GPIO_Port, LED_RED_Pin);
 8000176:	2120      	movs	r1, #32
 8000178:	4805      	ldr	r0, [pc, #20]	; (8000190 <main+0x44>)
 800017a:	f000 fcb3 	bl	8000ae4 <HAL_GPIO_TogglePin>
		  setTimer1(1000);
 800017e:	f44f 707a 	mov.w	r0, #1000	; 0x3e8
 8000182:	f000 f8d1 	bl	8000328 <setTimer1>
	  if(timer1_flag == 1)
 8000186:	e7f2      	b.n	800016e <main+0x22>
 8000188:	20000028 	.word	0x20000028
 800018c:	20000074 	.word	0x20000074
 8000190:	40010800 	.word	0x40010800

08000194 <SystemClock_Config>:
/**
  * @brief System Clock Configuration
  * @retval None
  */
void SystemClock_Config(void)
{
 8000194:	b580      	push	{r7, lr}
 8000196:	b090      	sub	sp, #64	; 0x40
 8000198:	af00      	add	r7, sp, #0
  RCC_OscInitTypeDef RCC_OscInitStruct = {0};
 800019a:	f107 0318 	add.w	r3, r7, #24
 800019e:	2228      	movs	r2, #40	; 0x28
 80001a0:	2100      	movs	r1, #0
 80001a2:	4618      	mov	r0, r3
 80001a4:	f001 fca2 	bl	8001aec <memset>
  RCC_ClkInitTypeDef RCC_ClkInitStruct = {0};
 80001a8:	1d3b      	adds	r3, r7, #4
 80001aa:	2200      	movs	r2, #0
 80001ac:	601a      	str	r2, [r3, #0]
 80001ae:	605a      	str	r2, [r3, #4]
 80001b0:	609a      	str	r2, [r3, #8]
 80001b2:	60da      	str	r2, [r3, #12]
 80001b4:	611a      	str	r2, [r3, #16]

  /** Initializes the RCC Oscillators according to the specified parameters
  * in the RCC_OscInitTypeDef structure.
  */
  RCC_OscInitStruct.OscillatorType = RCC_OSCILLATORTYPE_HSI;
 80001b6:	2302      	movs	r3, #2
 80001b8:	61bb      	str	r3, [r7, #24]
  RCC_OscInitStruct.HSIState = RCC_HSI_ON;
 80001ba:	2301      	movs	r3, #1
 80001bc:	62bb      	str	r3, [r7, #40]	; 0x28
  RCC_OscInitStruct.HSICalibrationValue = RCC_HSICALIBRATION_DEFAULT;
 80001be:	2310      	movs	r3, #16
 80001c0:	62fb      	str	r3, [r7, #44]	; 0x2c
  RCC_OscInitStruct.PLL.PLLState = RCC_PLL_NONE;
 80001c2:	2300      	movs	r3, #0
 80001c4:	637b      	str	r3, [r7, #52]	; 0x34
  if (HAL_RCC_OscConfig(&RCC_OscInitStruct) != HAL_OK)
 80001c6:	f107 0318 	add.w	r3, r7, #24
 80001ca:	4618      	mov	r0, r3
 80001cc:	f000 fca4 	bl	8000b18 <HAL_RCC_OscConfig>
 80001d0:	4603      	mov	r3, r0
 80001d2:	2b00      	cmp	r3, #0
 80001d4:	d001      	beq.n	80001da <SystemClock_Config+0x46>
  {
    Error_Handler();
 80001d6:	f000 f8a1 	bl	800031c <Error_Handler>
  }

  /** Initializes the CPU, AHB and APB buses clocks
  */
  RCC_ClkInitStruct.ClockType = RCC_CLOCKTYPE_HCLK|RCC_CLOCKTYPE_SYSCLK
 80001da:	230f      	movs	r3, #15
 80001dc:	607b      	str	r3, [r7, #4]
                              |RCC_CLOCKTYPE_PCLK1|RCC_CLOCKTYPE_PCLK2;
  RCC_ClkInitStruct.SYSCLKSource = RCC_SYSCLKSOURCE_HSI;
 80001de:	2300      	movs	r3, #0
 80001e0:	60bb      	str	r3, [r7, #8]
  RCC_ClkInitStruct.AHBCLKDivider = RCC_SYSCLK_DIV1;
 80001e2:	2300      	movs	r3, #0
 80001e4:	60fb      	str	r3, [r7, #12]
  RCC_ClkInitStruct.APB1CLKDivider = RCC_HCLK_DIV1;
 80001e6:	2300      	movs	r3, #0
 80001e8:	613b      	str	r3, [r7, #16]
  RCC_ClkInitStruct.APB2CLKDivider = RCC_HCLK_DIV1;
 80001ea:	2300      	movs	r3, #0
 80001ec:	617b      	str	r3, [r7, #20]

  if (HAL_RCC_ClockConfig(&RCC_ClkInitStruct, FLASH_LATENCY_0) != HAL_OK)
 80001ee:	1d3b      	adds	r3, r7, #4
 80001f0:	2100      	movs	r1, #0
 80001f2:	4618      	mov	r0, r3
 80001f4:	f000 ff12 	bl	800101c <HAL_RCC_ClockConfig>
 80001f8:	4603      	mov	r3, r0
 80001fa:	2b00      	cmp	r3, #0
 80001fc:	d001      	beq.n	8000202 <SystemClock_Config+0x6e>
  {
    Error_Handler();
 80001fe:	f000 f88d 	bl	800031c <Error_Handler>
  }
}
 8000202:	bf00      	nop
 8000204:	3740      	adds	r7, #64	; 0x40
 8000206:	46bd      	mov	sp, r7
 8000208:	bd80      	pop	{r7, pc}
	...

0800020c <MX_TIM2_Init>:
  * @brief TIM2 Initialization Function
  * @param None
  * @retval None
  */
static void MX_TIM2_Init(void)
{
 800020c:	b580      	push	{r7, lr}
 800020e:	b086      	sub	sp, #24
 8000210:	af00      	add	r7, sp, #0

  /* USER CODE BEGIN TIM2_Init 0 */

  /* USER CODE END TIM2_Init 0 */

  TIM_ClockConfigTypeDef sClockSourceConfig = {0};
 8000212:	f107 0308 	add.w	r3, r7, #8
 8000216:	2200      	movs	r2, #0
 8000218:	601a      	str	r2, [r3, #0]
 800021a:	605a      	str	r2, [r3, #4]
 800021c:	609a      	str	r2, [r3, #8]
 800021e:	60da      	str	r2, [r3, #12]
  TIM_MasterConfigTypeDef sMasterConfig = {0};
 8000220:	463b      	mov	r3, r7
 8000222:	2200      	movs	r2, #0
 8000224:	601a      	str	r2, [r3, #0]
 8000226:	605a      	str	r2, [r3, #4]

  /* USER CODE BEGIN TIM2_Init 1 */

  /* USER CODE END TIM2_Init 1 */
  htim2.Instance = TIM2;
 8000228:	4b1d      	ldr	r3, [pc, #116]	; (80002a0 <MX_TIM2_Init+0x94>)
 800022a:	f04f 4280 	mov.w	r2, #1073741824	; 0x40000000
 800022e:	601a      	str	r2, [r3, #0]
  htim2.Init.Prescaler = 7999;
 8000230:	4b1b      	ldr	r3, [pc, #108]	; (80002a0 <MX_TIM2_Init+0x94>)
 8000232:	f641 723f 	movw	r2, #7999	; 0x1f3f
 8000236:	605a      	str	r2, [r3, #4]
  htim2.Init.CounterMode = TIM_COUNTERMODE_UP;
 8000238:	4b19      	ldr	r3, [pc, #100]	; (80002a0 <MX_TIM2_Init+0x94>)
 800023a:	2200      	movs	r2, #0
 800023c:	609a      	str	r2, [r3, #8]
  htim2.Init.Period = 9;
 800023e:	4b18      	ldr	r3, [pc, #96]	; (80002a0 <MX_TIM2_Init+0x94>)
 8000240:	2209      	movs	r2, #9
 8000242:	60da      	str	r2, [r3, #12]
  htim2.Init.ClockDivision = TIM_CLOCKDIVISION_DIV1;
 8000244:	4b16      	ldr	r3, [pc, #88]	; (80002a0 <MX_TIM2_Init+0x94>)
 8000246:	2200      	movs	r2, #0
 8000248:	611a      	str	r2, [r3, #16]
  htim2.Init.AutoReloadPreload = TIM_AUTORELOAD_PRELOAD_DISABLE;
 800024a:	4b15      	ldr	r3, [pc, #84]	; (80002a0 <MX_TIM2_Init+0x94>)
 800024c:	2200      	movs	r2, #0
 800024e:	619a      	str	r2, [r3, #24]
  if (HAL_TIM_Base_Init(&htim2) != HAL_OK)
 8000250:	4813      	ldr	r0, [pc, #76]	; (80002a0 <MX_TIM2_Init+0x94>)
 8000252:	f001 f83f 	bl	80012d4 <HAL_TIM_Base_Init>
 8000256:	4603      	mov	r3, r0
 8000258:	2b00      	cmp	r3, #0
 800025a:	d001      	beq.n	8000260 <MX_TIM2_Init+0x54>
  {
    Error_Handler();
 800025c:	f000 f85e 	bl	800031c <Error_Handler>
  }
  sClockSourceConfig.ClockSource = TIM_CLOCKSOURCE_INTERNAL;
 8000260:	f44f 5380 	mov.w	r3, #4096	; 0x1000
 8000264:	60bb      	str	r3, [r7, #8]
  if (HAL_TIM_ConfigClockSource(&htim2, &sClockSourceConfig) != HAL_OK)
 8000266:	f107 0308 	add.w	r3, r7, #8
 800026a:	4619      	mov	r1, r3
 800026c:	480c      	ldr	r0, [pc, #48]	; (80002a0 <MX_TIM2_Init+0x94>)
 800026e:	f001 f9d5 	bl	800161c <HAL_TIM_ConfigClockSource>
 8000272:	4603      	mov	r3, r0
 8000274:	2b00      	cmp	r3, #0
 8000276:	d001      	beq.n	800027c <MX_TIM2_Init+0x70>
  {
    Error_Handler();
 8000278:	f000 f850 	bl	800031c <Error_Handler>
  }
  sMasterConfig.MasterOutputTrigger = TIM_TRGO_RESET;
 800027c:	2300      	movs	r3, #0
 800027e:	603b      	str	r3, [r7, #0]
  sMasterConfig.MasterSlaveMode = TIM_MASTERSLAVEMODE_DISABLE;
 8000280:	2300      	movs	r3, #0
 8000282:	607b      	str	r3, [r7, #4]
  if (HAL_TIMEx_MasterConfigSynchronization(&htim2, &sMasterConfig) != HAL_OK)
 8000284:	463b      	mov	r3, r7
 8000286:	4619      	mov	r1, r3
 8000288:	4805      	ldr	r0, [pc, #20]	; (80002a0 <MX_TIM2_Init+0x94>)
 800028a:	f001 fba1 	bl	80019d0 <HAL_TIMEx_MasterConfigSynchronization>
 800028e:	4603      	mov	r3, r0
 8000290:	2b00      	cmp	r3, #0
 8000292:	d001      	beq.n	8000298 <MX_TIM2_Init+0x8c>
  {
    Error_Handler();
 8000294:	f000 f842 	bl	800031c <Error_Handler>
  }
  /* USER CODE BEGIN TIM2_Init 2 */

  /* USER CODE END TIM2_Init 2 */

}
 8000298:	bf00      	nop
 800029a:	3718      	adds	r7, #24
 800029c:	46bd      	mov	sp, r7
 800029e:	bd80      	pop	{r7, pc}
 80002a0:	20000028 	.word	0x20000028

080002a4 <MX_GPIO_Init>:
  * @brief GPIO Initialization Function
  * @param None
  * @retval None
  */
static void MX_GPIO_Init(void)
{
 80002a4:	b580      	push	{r7, lr}
 80002a6:	b086      	sub	sp, #24
 80002a8:	af00      	add	r7, sp, #0
  GPIO_InitTypeDef GPIO_InitStruct = {0};
 80002aa:	f107 0308 	add.w	r3, r7, #8
 80002ae:	2200      	movs	r2, #0
 80002b0:	601a      	str	r2, [r3, #0]
 80002b2:	605a      	str	r2, [r3, #4]
 80002b4:	609a      	str	r2, [r3, #8]
 80002b6:	60da      	str	r2, [r3, #12]
/* USER CODE BEGIN MX_GPIO_Init_1 */
/* USER CODE END MX_GPIO_Init_1 */

  /* GPIO Ports Clock Enable */
  __HAL_RCC_GPIOA_CLK_ENABLE();
 80002b8:	4b11      	ldr	r3, [pc, #68]	; (8000300 <MX_GPIO_Init+0x5c>)
 80002ba:	699b      	ldr	r3, [r3, #24]
 80002bc:	4a10      	ldr	r2, [pc, #64]	; (8000300 <MX_GPIO_Init+0x5c>)
 80002be:	f043 0304 	orr.w	r3, r3, #4
 80002c2:	6193      	str	r3, [r2, #24]
 80002c4:	4b0e      	ldr	r3, [pc, #56]	; (8000300 <MX_GPIO_Init+0x5c>)
 80002c6:	699b      	ldr	r3, [r3, #24]
 80002c8:	f003 0304 	and.w	r3, r3, #4
 80002cc:	607b      	str	r3, [r7, #4]
 80002ce:	687b      	ldr	r3, [r7, #4]

  /*Configure GPIO pin Output Level */
  HAL_GPIO_WritePin(LED_RED_GPIO_Port, LED_RED_Pin, GPIO_PIN_RESET);
 80002d0:	2200      	movs	r2, #0
 80002d2:	2120      	movs	r1, #32
 80002d4:	480b      	ldr	r0, [pc, #44]	; (8000304 <MX_GPIO_Init+0x60>)
 80002d6:	f000 fbed 	bl	8000ab4 <HAL_GPIO_WritePin>

  /*Configure GPIO pin : LED_RED_Pin */
  GPIO_InitStruct.Pin = LED_RED_Pin;
 80002da:	2320      	movs	r3, #32
 80002dc:	60bb      	str	r3, [r7, #8]
  GPIO_InitStruct.Mode = GPIO_MODE_OUTPUT_PP;
 80002de:	2301      	movs	r3, #1
 80002e0:	60fb      	str	r3, [r7, #12]
  GPIO_InitStruct.Pull = GPIO_NOPULL;
 80002e2:	2300      	movs	r3, #0
 80002e4:	613b      	str	r3, [r7, #16]
  GPIO_InitStruct.Speed = GPIO_SPEED_FREQ_LOW;
 80002e6:	2302      	movs	r3, #2
 80002e8:	617b      	str	r3, [r7, #20]
  HAL_GPIO_Init(LED_RED_GPIO_Port, &GPIO_InitStruct);
 80002ea:	f107 0308 	add.w	r3, r7, #8
 80002ee:	4619      	mov	r1, r3
 80002f0:	4804      	ldr	r0, [pc, #16]	; (8000304 <MX_GPIO_Init+0x60>)
 80002f2:	f000 fa63 	bl	80007bc <HAL_GPIO_Init>

/* USER CODE BEGIN MX_GPIO_Init_2 */
/* USER CODE END MX_GPIO_Init_2 */
}
 80002f6:	bf00      	nop
 80002f8:	3718      	adds	r7, #24
 80002fa:	46bd      	mov	sp, r7
 80002fc:	bd80      	pop	{r7, pc}
 80002fe:	bf00      	nop
 8000300:	40021000 	.word	0x40021000
 8000304:	40010800 	.word	0x40010800

08000308 <HAL_TIM_PeriodElapsedCallback>:

/* USER CODE BEGIN 4 */
void HAL_TIM_PeriodElapsedCallback(TIM_HandleTypeDef *htim)
{
 8000308:	b580      	push	{r7, lr}
 800030a:	b082      	sub	sp, #8
 800030c:	af00      	add	r7, sp, #0
 800030e:	6078      	str	r0, [r7, #4]
	timerRun();
 8000310:	f000 f826 	bl	8000360 <timerRun>
}
 8000314:	bf00      	nop
 8000316:	3708      	adds	r7, #8
 8000318:	46bd      	mov	sp, r7
 800031a:	bd80      	pop	{r7, pc}

0800031c <Error_Handler>:
/**
  * @brief  This function is executed in case of error occurrence.
  * @retval None
  */
void Error_Handler(void)
{
 800031c:	b480      	push	{r7}
 800031e:	af00      	add	r7, sp, #0
  \details Disables IRQ interrupts by setting the I-bit in the CPSR.
           Can only be executed in Privileged modes.
 */
__STATIC_FORCEINLINE void __disable_irq(void)
{
  __ASM volatile ("cpsid i" : : : "memory");
 8000320:	b672      	cpsid	i
}
 8000322:	bf00      	nop
  /* USER CODE BEGIN Error_Handler_Debug */
  /* User can add his own implementation to report the HAL error return state */
  __disable_irq();
  while (1)
 8000324:	e7fe      	b.n	8000324 <Error_Handler+0x8>
	...

08000328 <setTimer1>:

int timer1_counter = 0;
int timer1_flag = 0;

void setTimer1(int duration)
{
 8000328:	b480      	push	{r7}
 800032a:	b083      	sub	sp, #12
 800032c:	af00      	add	r7, sp, #0
 800032e:	6078      	str	r0, [r7, #4]
	timer1_counter = duration/TICK;
 8000330:	687b      	ldr	r3, [r7, #4]
 8000332:	4a08      	ldr	r2, [pc, #32]	; (8000354 <setTimer1+0x2c>)
 8000334:	fb82 1203 	smull	r1, r2, r2, r3
 8000338:	1092      	asrs	r2, r2, #2
 800033a:	17db      	asrs	r3, r3, #31
 800033c:	1ad3      	subs	r3, r2, r3
 800033e:	4a06      	ldr	r2, [pc, #24]	; (8000358 <setTimer1+0x30>)
 8000340:	6013      	str	r3, [r2, #0]
	timer1_flag = 0;
 8000342:	4b06      	ldr	r3, [pc, #24]	; (800035c <setTimer1+0x34>)
 8000344:	2200      	movs	r2, #0
 8000346:	601a      	str	r2, [r3, #0]
}
 8000348:	bf00      	nop
 800034a:	370c      	adds	r7, #12
 800034c:	46bd      	mov	sp, r7
 800034e:	bc80      	pop	{r7}
 8000350:	4770      	bx	lr
 8000352:	bf00      	nop
 8000354:	66666667 	.word	0x66666667
 8000358:	20000070 	.word	0x20000070
 800035c:	20000074 	.word	0x20000074

08000360 <timerRun>:

void timerRun(void)
{
 8000360:	b480      	push	{r7}
 8000362:	af00      	add	r7, sp, #0
	if(timer1_counter > 0)
 8000364:	4b09      	ldr	r3, [pc, #36]	; (800038c <timerRun+0x2c>)
 8000366:	681b      	ldr	r3, [r3, #0]
 8000368:	2b00      	cmp	r3, #0
 800036a:	dd0b      	ble.n	8000384 <timerRun+0x24>
	{
		timer1_counter--;
 800036c:	4b07      	ldr	r3, [pc, #28]	; (800038c <timerRun+0x2c>)
 800036e:	681b      	ldr	r3, [r3, #0]
 8000370:	3b01      	subs	r3, #1
 8000372:	4a06      	ldr	r2, [pc, #24]	; (800038c <timerRun+0x2c>)
 8000374:	6013      	str	r3, [r2, #0]
		if(timer1_counter <= 0)
 8000376:	4b05      	ldr	r3, [pc, #20]	; (800038c <timerRun+0x2c>)
 8000378:	681b      	ldr	r3, [r3, #0]
 800037a:	2b00      	cmp	r3, #0
 800037c:	dc02      	bgt.n	8000384 <timerRun+0x24>
		{
			timer1_flag = 1;
 800037e:	4b04      	ldr	r3, [pc, #16]	; (8000390 <timerRun+0x30>)
 8000380:	2201      	movs	r2, #1
 8000382:	601a      	str	r2, [r3, #0]
		}
	}
}
 8000384:	bf00      	nop
 8000386:	46bd      	mov	sp, r7
 8000388:	bc80      	pop	{r7}
 800038a:	4770      	bx	lr
 800038c:	20000070 	.word	0x20000070
 8000390:	20000074 	.word	0x20000074

08000394 <HAL_MspInit>:
/* USER CODE END 0 */
/**
  * Initializes the Global MSP.
  */
void HAL_MspInit(void)
{
 8000394:	b480      	push	{r7}
 8000396:	b083      	sub	sp, #12
 8000398:	af00      	add	r7, sp, #0
  /* USER CODE BEGIN MspInit 0 */

  /* USER CODE END MspInit 0 */

  __HAL_RCC_AFIO_CLK_ENABLE();
 800039a:	4b0e      	ldr	r3, [pc, #56]	; (80003d4 <HAL_MspInit+0x40>)
 800039c:	699b      	ldr	r3, [r3, #24]
 800039e:	4a0d      	ldr	r2, [pc, #52]	; (80003d4 <HAL_MspInit+0x40>)
 80003a0:	f043 0301 	orr.w	r3, r3, #1
 80003a4:	6193      	str	r3, [r2, #24]
 80003a6:	4b0b      	ldr	r3, [pc, #44]	; (80003d4 <HAL_MspInit+0x40>)
 80003a8:	699b      	ldr	r3, [r3, #24]
 80003aa:	f003 0301 	and.w	r3, r3, #1
 80003ae:	607b      	str	r3, [r7, #4]
 80003b0:	687b      	ldr	r3, [r7, #4]
  __HAL_RCC_PWR_CLK_ENABLE();
 80003b2:	4b08      	ldr	r3, [pc, #32]	; (80003d4 <HAL_MspInit+0x40>)
 80003b4:	69db      	ldr	r3, [r3, #28]
 80003b6:	4a07      	ldr	r2, [pc, #28]	; (80003d4 <HAL_MspInit+0x40>)
 80003b8:	f043 5380 	orr.w	r3, r3, #268435456	; 0x10000000
 80003bc:	61d3      	str	r3, [r2, #28]
 80003be:	4b05      	ldr	r3, [pc, #20]	; (80003d4 <HAL_MspInit+0x40>)
 80003c0:	69db      	ldr	r3, [r3, #28]
 80003c2:	f003 5380 	and.w	r3, r3, #268435456	; 0x10000000
 80003c6:	603b      	str	r3, [r7, #0]
 80003c8:	683b      	ldr	r3, [r7, #0]
  /* System interrupt init*/

  /* USER CODE BEGIN MspInit 1 */

  /* USER CODE END MspInit 1 */
}
 80003ca:	bf00      	nop
 80003cc:	370c      	adds	r7, #12
 80003ce:	46bd      	mov	sp, r7
 80003d0:	bc80      	pop	{r7}
 80003d2:	4770      	bx	lr
 80003d4:	40021000 	.word	0x40021000

080003d8 <HAL_TIM_Base_MspInit>:
* This function configures the hardware resources used in this example
* @param htim_base: TIM_Base handle pointer
* @retval None
*/
void HAL_TIM_Base_MspInit(TIM_HandleTypeDef* htim_base)
{
 80003d8:	b580      	push	{r7, lr}
 80003da:	b084      	sub	sp, #16
 80003dc:	af00      	add	r7, sp, #0
 80003de:	6078      	str	r0, [r7, #4]
  if(htim_base->Instance==TIM2)
 80003e0:	687b      	ldr	r3, [r7, #4]
 80003e2:	681b      	ldr	r3, [r3, #0]
 80003e4:	f1b3 4f80 	cmp.w	r3, #1073741824	; 0x40000000
 80003e8:	d113      	bne.n	8000412 <HAL_TIM_Base_MspInit+0x3a>
  {
  /* USER CODE BEGIN TIM2_MspInit 0 */

  /* USER CODE END TIM2_MspInit 0 */
    /* Peripheral clock enable */
    __HAL_RCC_TIM2_CLK_ENABLE();
 80003ea:	4b0c      	ldr	r3, [pc, #48]	; (800041c <HAL_TIM_Base_MspInit+0x44>)
 80003ec:	69db      	ldr	r3, [r3, #28]
 80003ee:	4a0b      	ldr	r2, [pc, #44]	; (800041c <HAL_TIM_Base_MspInit+0x44>)
 80003f0:	f043 0301 	orr.w	r3, r3, #1
 80003f4:	61d3      	str	r3, [r2, #28]
 80003f6:	4b09      	ldr	r3, [pc, #36]	; (800041c <HAL_TIM_Base_MspInit+0x44>)
 80003f8:	69db      	ldr	r3, [r3, #28]
 80003fa:	f003 0301 	and.w	r3, r3, #1
 80003fe:	60fb      	str	r3, [r7, #12]
 8000400:	68fb      	ldr	r3, [r7, #12]
    /* TIM2 interrupt Init */
    HAL_NVIC_SetPriority(TIM2_IRQn, 0, 0);
 8000402:	2200      	movs	r2, #0
 8000404:	2100      	movs	r1, #0
 8000406:	201c      	movs	r0, #28
 8000408:	f000 f9a1 	bl	800074e <HAL_NVIC_SetPriority>
    HAL_NVIC_EnableIRQ(TIM2_IRQn);
 800040c:	201c      	movs	r0, #28
 800040e:	f000 f9ba 	bl	8000786 <HAL_NVIC_EnableIRQ>
  /* USER CODE BEGIN TIM2_MspInit 1 */

  /* USER CODE END TIM2_MspInit 1 */
  }

}
 8000412:	bf00      	nop
 8000414:	3710      	adds	r7, #16
 8000416:	46bd      	mov	sp, r7
 8000418:	bd80      	pop	{r7, pc}
 800041a:	bf00      	nop
 800041c:	40021000 	.word	0x40021000

08000420 <NMI_Handler>:
/******************************************************************************/
/**
  * @brief This function handles Non maskable interrupt.
  */
void NMI_Handler(void)
{
 8000420:	b480      	push	{r7}
 8000422:	af00      	add	r7, sp, #0
  /* USER CODE BEGIN NonMaskableInt_IRQn 0 */

  /* USER CODE END NonMaskableInt_IRQn 0 */
  /* USER CODE BEGIN NonMaskableInt_IRQn 1 */
  while (1)
 8000424:	e7fe      	b.n	8000424 <NMI_Handler+0x4>

08000426 <HardFault_Handler>:

/**
  * @brief This function handles Hard fault interrupt.
  */
void HardFault_Handler(void)
{
 8000426:	b480      	push	{r7}
 8000428:	af00      	add	r7, sp, #0
  /* USER CODE BEGIN HardFault_IRQn 0 */

  /* USER CODE END HardFault_IRQn 0 */
  while (1)
 800042a:	e7fe      	b.n	800042a <HardFault_Handler+0x4>

0800042c <MemManage_Handler>:

/**
  * @brief This function handles Memory management fault.
  */
void MemManage_Handler(void)
{
 800042c:	b480      	push	{r7}
 800042e:	af00      	add	r7, sp, #0
  /* USER CODE BEGIN MemoryManagement_IRQn 0 */

  /* USER CODE END MemoryManagement_IRQn 0 */
  while (1)
 8000430:	e7fe      	b.n	8000430 <MemManage_Handler+0x4>

08000432 <BusFault_Handler>:

/**
  * @brief This function handles Prefetch fault, memory access fault.
  */
void BusFault_Handler(void)
{
 8000432:	b480      	push	{r7}
 8000434:	af00      	add	r7, sp, #0
  /* USER CODE BEGIN BusFault_IRQn 0 */

  /* USER CODE END BusFault_IRQn 0 */
  while (1)
 8000436:	e7fe      	b.n	8000436 <BusFault_Handler+0x4>

08000438 <UsageFault_Handler>:

/**
  * @brief This function handles Undefined instruction or illegal state.
  */
void UsageFault_Handler(void)
{
 8000438:	b480      	push	{r7}
 800043a:	af00      	add	r7, sp, #0
  /* USER CODE BEGIN UsageFault_IRQn 0 */

  /* USER CODE END UsageFault_IRQn 0 */
  while (1)
 800043c:	e7fe      	b.n	800043c <UsageFault_Handler+0x4>

0800043e <SVC_Handler>:

/**
  * @brief This function handles System service call via SWI instruction.
  */
void SVC_Handler(void)
{
 800043e:	b480      	push	{r7}
 8000440:	af00      	add	r7, sp, #0

  /* USER CODE END SVCall_IRQn 0 */
  /* USER CODE BEGIN SVCall_IRQn 1 */

  /* USER CODE END SVCall_IRQn 1 */
}
 8000442:	bf00      	nop
 8000444:	46bd      	mov	sp, r7
 8000446:	bc80      	pop	{r7}
 8000448:	4770      	bx	lr

0800044a <DebugMon_Handler>:

/**
  * @brief This function handles Debug monitor.
  */
void DebugMon_Handler(void)
{
 800044a:	b480      	push	{r7}
 800044c:	af00      	add	r7, sp, #0

  /* USER CODE END DebugMonitor_IRQn 0 */
  /* USER CODE BEGIN DebugMonitor_IRQn 1 */

  /* USER CODE END DebugMonitor_IRQn 1 */
}
 800044e:	bf00      	nop
 8000450:	46bd      	mov	sp, r7
 8000452:	bc80      	pop	{r7}
 8000454:	4770      	bx	lr

08000456 <PendSV_Handler>:

/**
  * @brief This function handles Pendable request for system service.
  */
void PendSV_Handler(void)
{
 8000456:	b480      	push	{r7}
 8000458:	af00      	add	r7, sp, #0

  /* USER CODE END PendSV_IRQn 0 */
  /* USER CODE BEGIN PendSV_IRQn 1 */

  /* USER CODE END PendSV_IRQn 1 */
}
 800045a:	bf00      	nop
 800045c:	46bd      	mov	sp, r7
 800045e:	bc80      	pop	{r7}
 8000460:	4770      	bx	lr

08000462 <SysTick_Handler>:

/**
  * @brief This function handles System tick timer.
  */
void SysTick_Handler(void)
{
 8000462:	b580      	push	{r7, lr}
 8000464:	af00      	add	r7, sp, #0
  /* USER CODE BEGIN SysTick_IRQn 0 */

  /* USER CODE END SysTick_IRQn 0 */
  HAL_IncTick();
 8000466:	f000 f87f 	bl	8000568 <HAL_IncTick>
  /* USER CODE BEGIN SysTick_IRQn 1 */

  /* USER CODE END SysTick_IRQn 1 */
}
 800046a:	bf00      	nop
 800046c:	bd80      	pop	{r7, pc}
	...

08000470 <TIM2_IRQHandler>:

/**
  * @brief This function handles TIM2 global interrupt.
  */
void TIM2_IRQHandler(void)
{
 8000470:	b580      	push	{r7, lr}
 8000472:	af00      	add	r7, sp, #0
  /* USER CODE BEGIN TIM2_IRQn 0 */

  /* USER CODE END TIM2_IRQn 0 */
  HAL_TIM_IRQHandler(&htim2);
 8000474:	4802      	ldr	r0, [pc, #8]	; (8000480 <TIM2_IRQHandler+0x10>)
 8000476:	f000 ffc9 	bl	800140c <HAL_TIM_IRQHandler>
  /* USER CODE BEGIN TIM2_IRQn 1 */

  /* USER CODE END TIM2_IRQn 1 */
}
 800047a:	bf00      	nop
 800047c:	bd80      	pop	{r7, pc}
 800047e:	bf00      	nop
 8000480:	20000028 	.word	0x20000028

08000484 <SystemInit>:
  * @note   This function should be used only after reset.
  * @param  None
  * @retval None
  */
void SystemInit (void)
{
 8000484:	b480      	push	{r7}
 8000486:	af00      	add	r7, sp, #0

  /* Configure the Vector Table location -------------------------------------*/
#if defined(USER_VECT_TAB_ADDRESS)
  SCB->VTOR = VECT_TAB_BASE_ADDRESS | VECT_TAB_OFFSET; /* Vector Table Relocation in Internal SRAM. */
#endif /* USER_VECT_TAB_ADDRESS */
}
 8000488:	bf00      	nop
 800048a:	46bd      	mov	sp, r7
 800048c:	bc80      	pop	{r7}
 800048e:	4770      	bx	lr

08000490 <Reset_Handler>:
  .weak Reset_Handler
  .type Reset_Handler, %function
Reset_Handler:

/* Call the clock system initialization function.*/
    bl  SystemInit
 8000490:	f7ff fff8 	bl	8000484 <SystemInit>

/* Copy the data segment initializers from flash to SRAM */
  ldr r0, =_sdata
 8000494:	480b      	ldr	r0, [pc, #44]	; (80004c4 <LoopFillZerobss+0xe>)
  ldr r1, =_edata
 8000496:	490c      	ldr	r1, [pc, #48]	; (80004c8 <LoopFillZerobss+0x12>)
  ldr r2, =_sidata
 8000498:	4a0c      	ldr	r2, [pc, #48]	; (80004cc <LoopFillZerobss+0x16>)
  movs r3, #0
 800049a:	2300      	movs	r3, #0
  b LoopCopyDataInit
 800049c:	e002      	b.n	80004a4 <LoopCopyDataInit>

0800049e <CopyDataInit>:

CopyDataInit:
  ldr r4, [r2, r3]
 800049e:	58d4      	ldr	r4, [r2, r3]
  str r4, [r0, r3]
 80004a0:	50c4      	str	r4, [r0, r3]
  adds r3, r3, #4
 80004a2:	3304      	adds	r3, #4

080004a4 <LoopCopyDataInit>:

LoopCopyDataInit:
  adds r4, r0, r3
 80004a4:	18c4      	adds	r4, r0, r3
  cmp r4, r1
 80004a6:	428c      	cmp	r4, r1
  bcc CopyDataInit
 80004a8:	d3f9      	bcc.n	800049e <CopyDataInit>
  
/* Zero fill the bss segment. */
  ldr r2, =_sbss
 80004aa:	4a09      	ldr	r2, [pc, #36]	; (80004d0 <LoopFillZerobss+0x1a>)
  ldr r4, =_ebss
 80004ac:	4c09      	ldr	r4, [pc, #36]	; (80004d4 <LoopFillZerobss+0x1e>)
  movs r3, #0
 80004ae:	2300      	movs	r3, #0
  b LoopFillZerobss
 80004b0:	e001      	b.n	80004b6 <LoopFillZerobss>

080004b2 <FillZerobss>:

FillZerobss:
  str  r3, [r2]
 80004b2:	6013      	str	r3, [r2, #0]
  adds r2, r2, #4
 80004b4:	3204      	adds	r2, #4

080004b6 <LoopFillZerobss>:

LoopFillZerobss:
  cmp r2, r4
 80004b6:	42a2      	cmp	r2, r4
  bcc FillZerobss
 80004b8:	d3fb      	bcc.n	80004b2 <FillZerobss>

/* Call static constructors */
    bl __libc_init_array
 80004ba:	f001 faf3 	bl	8001aa4 <__libc_init_array>
/* Call the application's entry point.*/
  bl main
 80004be:	f7ff fe45 	bl	800014c <main>
  bx lr
 80004c2:	4770      	bx	lr
  ldr r0, =_sdata
 80004c4:	20000000 	.word	0x20000000
  ldr r1, =_edata
 80004c8:	2000000c 	.word	0x2000000c
  ldr r2, =_sidata
 80004cc:	08001b40 	.word	0x08001b40
  ldr r2, =_sbss
 80004d0:	2000000c 	.word	0x2000000c
  ldr r4, =_ebss
 80004d4:	2000007c 	.word	0x2000007c

080004d8 <ADC1_2_IRQHandler>:
 * @retval : None
*/
    .section .text.Default_Handler,"ax",%progbits
Default_Handler:
Infinite_Loop:
  b Infinite_Loop
 80004d8:	e7fe      	b.n	80004d8 <ADC1_2_IRQHandler>
	...

080004dc <HAL_Init>:
  *         need to ensure that the SysTick time base is always set to 1 millisecond
  *         to have correct HAL operation.
  * @retval HAL status
  */
HAL_StatusTypeDef HAL_Init(void)
{
 80004dc:	b580      	push	{r7, lr}
 80004de:	af00      	add	r7, sp, #0
    defined(STM32F102x6) || defined(STM32F102xB) || \
    defined(STM32F103x6) || defined(STM32F103xB) || defined(STM32F103xE) || defined(STM32F103xG) || \
    defined(STM32F105xC) || defined(STM32F107xC)

  /* Prefetch buffer is not available on value line devices */
  __HAL_FLASH_PREFETCH_BUFFER_ENABLE();
 80004e0:	4b08      	ldr	r3, [pc, #32]	; (8000504 <HAL_Init+0x28>)
 80004e2:	681b      	ldr	r3, [r3, #0]
 80004e4:	4a07      	ldr	r2, [pc, #28]	; (8000504 <HAL_Init+0x28>)
 80004e6:	f043 0310 	orr.w	r3, r3, #16
 80004ea:	6013      	str	r3, [r2, #0]
#endif
#endif /* PREFETCH_ENABLE */

  /* Set Interrupt Group Priority */
  HAL_NVIC_SetPriorityGrouping(NVIC_PRIORITYGROUP_4);
 80004ec:	2003      	movs	r0, #3
 80004ee:	f000 f923 	bl	8000738 <HAL_NVIC_SetPriorityGrouping>

  /* Use systick as time base source and configure 1ms tick (default clock after Reset is HSI) */
  HAL_InitTick(TICK_INT_PRIORITY);
 80004f2:	200f      	movs	r0, #15
 80004f4:	f000 f808 	bl	8000508 <HAL_InitTick>

  /* Init the low level hardware */
  HAL_MspInit();
 80004f8:	f7ff ff4c 	bl	8000394 <HAL_MspInit>

  /* Return function status */
  return HAL_OK;
 80004fc:	2300      	movs	r3, #0
}
 80004fe:	4618      	mov	r0, r3
 8000500:	bd80      	pop	{r7, pc}
 8000502:	bf00      	nop
 8000504:	40022000 	.word	0x40022000

08000508 <HAL_InitTick>:
  *       implementation  in user file.
  * @param TickPriority Tick interrupt priority.
  * @retval HAL status
  */
__weak HAL_StatusTypeDef HAL_InitTick(uint32_t TickPriority)
{
 8000508:	b580      	push	{r7, lr}
 800050a:	b082      	sub	sp, #8
 800050c:	af00      	add	r7, sp, #0
 800050e:	6078      	str	r0, [r7, #4]
  /* Configure the SysTick to have interrupt in 1ms time basis*/
  if (HAL_SYSTICK_Config(SystemCoreClock / (1000U / uwTickFreq)) > 0U)
 8000510:	4b12      	ldr	r3, [pc, #72]	; (800055c <HAL_InitTick+0x54>)
 8000512:	681a      	ldr	r2, [r3, #0]
 8000514:	4b12      	ldr	r3, [pc, #72]	; (8000560 <HAL_InitTick+0x58>)
 8000516:	781b      	ldrb	r3, [r3, #0]
 8000518:	4619      	mov	r1, r3
 800051a:	f44f 737a 	mov.w	r3, #1000	; 0x3e8
 800051e:	fbb3 f3f1 	udiv	r3, r3, r1
 8000522:	fbb2 f3f3 	udiv	r3, r2, r3
 8000526:	4618      	mov	r0, r3
 8000528:	f000 f93b 	bl	80007a2 <HAL_SYSTICK_Config>
 800052c:	4603      	mov	r3, r0
 800052e:	2b00      	cmp	r3, #0
 8000530:	d001      	beq.n	8000536 <HAL_InitTick+0x2e>
  {
    return HAL_ERROR;
 8000532:	2301      	movs	r3, #1
 8000534:	e00e      	b.n	8000554 <HAL_InitTick+0x4c>
  }

  /* Configure the SysTick IRQ priority */
  if (TickPriority < (1UL << __NVIC_PRIO_BITS))
 8000536:	687b      	ldr	r3, [r7, #4]
 8000538:	2b0f      	cmp	r3, #15
 800053a:	d80a      	bhi.n	8000552 <HAL_InitTick+0x4a>
  {
    HAL_NVIC_SetPriority(SysTick_IRQn, TickPriority, 0U);
 800053c:	2200      	movs	r2, #0
 800053e:	6879      	ldr	r1, [r7, #4]
 8000540:	f04f 30ff 	mov.w	r0, #4294967295
 8000544:	f000 f903 	bl	800074e <HAL_NVIC_SetPriority>
    uwTickPrio = TickPriority;
 8000548:	4a06      	ldr	r2, [pc, #24]	; (8000564 <HAL_InitTick+0x5c>)
 800054a:	687b      	ldr	r3, [r7, #4]
 800054c:	6013      	str	r3, [r2, #0]
  {
    return HAL_ERROR;
  }

  /* Return function status */
  return HAL_OK;
 800054e:	2300      	movs	r3, #0
 8000550:	e000      	b.n	8000554 <HAL_InitTick+0x4c>
    return HAL_ERROR;
 8000552:	2301      	movs	r3, #1
}
 8000554:	4618      	mov	r0, r3
 8000556:	3708      	adds	r7, #8
 8000558:	46bd      	mov	sp, r7
 800055a:	bd80      	pop	{r7, pc}
 800055c:	20000000 	.word	0x20000000
 8000560:	20000008 	.word	0x20000008
 8000564:	20000004 	.word	0x20000004

08000568 <HAL_IncTick>:
  * @note This function is declared as __weak to be overwritten in case of other
  *      implementations in user file.
  * @retval None
  */
__weak void HAL_IncTick(void)
{
 8000568:	b480      	push	{r7}
 800056a:	af00      	add	r7, sp, #0
  uwTick += uwTickFreq;
 800056c:	4b05      	ldr	r3, [pc, #20]	; (8000584 <HAL_IncTick+0x1c>)
 800056e:	781b      	ldrb	r3, [r3, #0]
 8000570:	461a      	mov	r2, r3
 8000572:	4b05      	ldr	r3, [pc, #20]	; (8000588 <HAL_IncTick+0x20>)
 8000574:	681b      	ldr	r3, [r3, #0]
 8000576:	4413      	add	r3, r2
 8000578:	4a03      	ldr	r2, [pc, #12]	; (8000588 <HAL_IncTick+0x20>)
 800057a:	6013      	str	r3, [r2, #0]
}
 800057c:	bf00      	nop
 800057e:	46bd      	mov	sp, r7
 8000580:	bc80      	pop	{r7}
 8000582:	4770      	bx	lr
 8000584:	20000008 	.word	0x20000008
 8000588:	20000078 	.word	0x20000078

0800058c <HAL_GetTick>:
  * @note  This function is declared as __weak to be overwritten in case of other
  *       implementations in user file.
  * @retval tick value
  */
__weak uint32_t HAL_GetTick(void)
{
 800058c:	b480      	push	{r7}
 800058e:	af00      	add	r7, sp, #0
  return uwTick;
 8000590:	4b02      	ldr	r3, [pc, #8]	; (800059c <HAL_GetTick+0x10>)
 8000592:	681b      	ldr	r3, [r3, #0]
}
 8000594:	4618      	mov	r0, r3
 8000596:	46bd      	mov	sp, r7
 8000598:	bc80      	pop	{r7}
 800059a:	4770      	bx	lr
 800059c:	20000078 	.word	0x20000078

080005a0 <__NVIC_SetPriorityGrouping>:
           In case of a conflict between priority grouping and available
           priority bits (__NVIC_PRIO_BITS), the smallest possible priority group is set.
  \param [in]      PriorityGroup  Priority grouping field.
 */
__STATIC_INLINE void __NVIC_SetPriorityGrouping(uint32_t PriorityGroup)
{
 80005a0:	b480      	push	{r7}
 80005a2:	b085      	sub	sp, #20
 80005a4:	af00      	add	r7, sp, #0
 80005a6:	6078      	str	r0, [r7, #4]
  uint32_t reg_value;
  uint32_t PriorityGroupTmp = (PriorityGroup & (uint32_t)0x07UL);             /* only values 0..7 are used          */
 80005a8:	687b      	ldr	r3, [r7, #4]
 80005aa:	f003 0307 	and.w	r3, r3, #7
 80005ae:	60fb      	str	r3, [r7, #12]

  reg_value  =  SCB->AIRCR;                                                   /* read old register configuration    */
 80005b0:	4b0c      	ldr	r3, [pc, #48]	; (80005e4 <__NVIC_SetPriorityGrouping+0x44>)
 80005b2:	68db      	ldr	r3, [r3, #12]
 80005b4:	60bb      	str	r3, [r7, #8]
  reg_value &= ~((uint32_t)(SCB_AIRCR_VECTKEY_Msk | SCB_AIRCR_PRIGROUP_Msk)); /* clear bits to change               */
 80005b6:	68ba      	ldr	r2, [r7, #8]
 80005b8:	f64f 03ff 	movw	r3, #63743	; 0xf8ff
 80005bc:	4013      	ands	r3, r2
 80005be:	60bb      	str	r3, [r7, #8]
  reg_value  =  (reg_value                                   |
                ((uint32_t)0x5FAUL << SCB_AIRCR_VECTKEY_Pos) |
                (PriorityGroupTmp << SCB_AIRCR_PRIGROUP_Pos) );               /* Insert write key and priority group */
 80005c0:	68fb      	ldr	r3, [r7, #12]
 80005c2:	021a      	lsls	r2, r3, #8
                ((uint32_t)0x5FAUL << SCB_AIRCR_VECTKEY_Pos) |
 80005c4:	68bb      	ldr	r3, [r7, #8]
 80005c6:	4313      	orrs	r3, r2
  reg_value  =  (reg_value                                   |
 80005c8:	f043 63bf 	orr.w	r3, r3, #100139008	; 0x5f80000
 80005cc:	f443 3300 	orr.w	r3, r3, #131072	; 0x20000
 80005d0:	60bb      	str	r3, [r7, #8]
  SCB->AIRCR =  reg_value;
 80005d2:	4a04      	ldr	r2, [pc, #16]	; (80005e4 <__NVIC_SetPriorityGrouping+0x44>)
 80005d4:	68bb      	ldr	r3, [r7, #8]
 80005d6:	60d3      	str	r3, [r2, #12]
}
 80005d8:	bf00      	nop
 80005da:	3714      	adds	r7, #20
 80005dc:	46bd      	mov	sp, r7
 80005de:	bc80      	pop	{r7}
 80005e0:	4770      	bx	lr
 80005e2:	bf00      	nop
 80005e4:	e000ed00 	.word	0xe000ed00

080005e8 <__NVIC_GetPriorityGrouping>:
  \brief   Get Priority Grouping
  \details Reads the priority grouping field from the NVIC Interrupt Controller.
  \return                Priority grouping field (SCB->AIRCR [10:8] PRIGROUP field).
 */
__STATIC_INLINE uint32_t __NVIC_GetPriorityGrouping(void)
{
 80005e8:	b480      	push	{r7}
 80005ea:	af00      	add	r7, sp, #0
  return ((uint32_t)((SCB->AIRCR & SCB_AIRCR_PRIGROUP_Msk) >> SCB_AIRCR_PRIGROUP_Pos));
 80005ec:	4b04      	ldr	r3, [pc, #16]	; (8000600 <__NVIC_GetPriorityGrouping+0x18>)
 80005ee:	68db      	ldr	r3, [r3, #12]
 80005f0:	0a1b      	lsrs	r3, r3, #8
 80005f2:	f003 0307 	and.w	r3, r3, #7
}
 80005f6:	4618      	mov	r0, r3
 80005f8:	46bd      	mov	sp, r7
 80005fa:	bc80      	pop	{r7}
 80005fc:	4770      	bx	lr
 80005fe:	bf00      	nop
 8000600:	e000ed00 	.word	0xe000ed00

08000604 <__NVIC_EnableIRQ>:
  \details Enables a device specific interrupt in the NVIC interrupt controller.
  \param [in]      IRQn  Device specific interrupt number.
  \note    IRQn must not be negative.
 */
__STATIC_INLINE void __NVIC_EnableIRQ(IRQn_Type IRQn)
{
 8000604:	b480      	push	{r7}
 8000606:	b083      	sub	sp, #12
 8000608:	af00      	add	r7, sp, #0
 800060a:	4603      	mov	r3, r0
 800060c:	71fb      	strb	r3, [r7, #7]
  if ((int32_t)(IRQn) >= 0)
 800060e:	f997 3007 	ldrsb.w	r3, [r7, #7]
 8000612:	2b00      	cmp	r3, #0
 8000614:	db0b      	blt.n	800062e <__NVIC_EnableIRQ+0x2a>
  {
    NVIC->ISER[(((uint32_t)IRQn) >> 5UL)] = (uint32_t)(1UL << (((uint32_t)IRQn) & 0x1FUL));
 8000616:	79fb      	ldrb	r3, [r7, #7]
 8000618:	f003 021f 	and.w	r2, r3, #31
 800061c:	4906      	ldr	r1, [pc, #24]	; (8000638 <__NVIC_EnableIRQ+0x34>)
 800061e:	f997 3007 	ldrsb.w	r3, [r7, #7]
 8000622:	095b      	lsrs	r3, r3, #5
 8000624:	2001      	movs	r0, #1
 8000626:	fa00 f202 	lsl.w	r2, r0, r2
 800062a:	f841 2023 	str.w	r2, [r1, r3, lsl #2]
  }
}
 800062e:	bf00      	nop
 8000630:	370c      	adds	r7, #12
 8000632:	46bd      	mov	sp, r7
 8000634:	bc80      	pop	{r7}
 8000636:	4770      	bx	lr
 8000638:	e000e100 	.word	0xe000e100

0800063c <__NVIC_SetPriority>:
  \param [in]      IRQn  Interrupt number.
  \param [in]  priority  Priority to set.
  \note    The priority cannot be set for every processor exception.
 */
__STATIC_INLINE void __NVIC_SetPriority(IRQn_Type IRQn, uint32_t priority)
{
 800063c:	b480      	push	{r7}
 800063e:	b083      	sub	sp, #12
 8000640:	af00      	add	r7, sp, #0
 8000642:	4603      	mov	r3, r0
 8000644:	6039      	str	r1, [r7, #0]
 8000646:	71fb      	strb	r3, [r7, #7]
  if ((int32_t)(IRQn) >= 0)
 8000648:	f997 3007 	ldrsb.w	r3, [r7, #7]
 800064c:	2b00      	cmp	r3, #0
 800064e:	db0a      	blt.n	8000666 <__NVIC_SetPriority+0x2a>
  {
    NVIC->IP[((uint32_t)IRQn)]               = (uint8_t)((priority << (8U - __NVIC_PRIO_BITS)) & (uint32_t)0xFFUL);
 8000650:	683b      	ldr	r3, [r7, #0]
 8000652:	b2da      	uxtb	r2, r3
 8000654:	490c      	ldr	r1, [pc, #48]	; (8000688 <__NVIC_SetPriority+0x4c>)
 8000656:	f997 3007 	ldrsb.w	r3, [r7, #7]
 800065a:	0112      	lsls	r2, r2, #4
 800065c:	b2d2      	uxtb	r2, r2
 800065e:	440b      	add	r3, r1
 8000660:	f883 2300 	strb.w	r2, [r3, #768]	; 0x300
  }
  else
  {
    SCB->SHP[(((uint32_t)IRQn) & 0xFUL)-4UL] = (uint8_t)((priority << (8U - __NVIC_PRIO_BITS)) & (uint32_t)0xFFUL);
  }
}
 8000664:	e00a      	b.n	800067c <__NVIC_SetPriority+0x40>
    SCB->SHP[(((uint32_t)IRQn) & 0xFUL)-4UL] = (uint8_t)((priority << (8U - __NVIC_PRIO_BITS)) & (uint32_t)0xFFUL);
 8000666:	683b      	ldr	r3, [r7, #0]
 8000668:	b2da      	uxtb	r2, r3
 800066a:	4908      	ldr	r1, [pc, #32]	; (800068c <__NVIC_SetPriority+0x50>)
 800066c:	79fb      	ldrb	r3, [r7, #7]
 800066e:	f003 030f 	and.w	r3, r3, #15
 8000672:	3b04      	subs	r3, #4
 8000674:	0112      	lsls	r2, r2, #4
 8000676:	b2d2      	uxtb	r2, r2
 8000678:	440b      	add	r3, r1
 800067a:	761a      	strb	r2, [r3, #24]
}
 800067c:	bf00      	nop
 800067e:	370c      	adds	r7, #12
 8000680:	46bd      	mov	sp, r7
 8000682:	bc80      	pop	{r7}
 8000684:	4770      	bx	lr
 8000686:	bf00      	nop
 8000688:	e000e100 	.word	0xe000e100
 800068c:	e000ed00 	.word	0xe000ed00

08000690 <NVIC_EncodePriority>:
  \param [in]   PreemptPriority  Preemptive priority value (starting from 0).
  \param [in]       SubPriority  Subpriority value (starting from 0).
  \return                        Encoded priority. Value can be used in the function \ref NVIC_SetPriority().
 */
__STATIC_INLINE uint32_t NVIC_EncodePriority (uint32_t PriorityGroup, uint32_t PreemptPriority, uint32_t SubPriority)
{
 8000690:	b480      	push	{r7}
 8000692:	b089      	sub	sp, #36	; 0x24
 8000694:	af00      	add	r7, sp, #0
 8000696:	60f8      	str	r0, [r7, #12]
 8000698:	60b9      	str	r1, [r7, #8]
 800069a:	607a      	str	r2, [r7, #4]
  uint32_t PriorityGroupTmp = (PriorityGroup & (uint32_t)0x07UL);   /* only values 0..7 are used          */
 800069c:	68fb      	ldr	r3, [r7, #12]
 800069e:	f003 0307 	and.w	r3, r3, #7
 80006a2:	61fb      	str	r3, [r7, #28]
  uint32_t PreemptPriorityBits;
  uint32_t SubPriorityBits;

  PreemptPriorityBits = ((7UL - PriorityGroupTmp) > (uint32_t)(__NVIC_PRIO_BITS)) ? (uint32_t)(__NVIC_PRIO_BITS) : (uint32_t)(7UL - PriorityGroupTmp);
 80006a4:	69fb      	ldr	r3, [r7, #28]
 80006a6:	f1c3 0307 	rsb	r3, r3, #7
 80006aa:	2b04      	cmp	r3, #4
 80006ac:	bf28      	it	cs
 80006ae:	2304      	movcs	r3, #4
 80006b0:	61bb      	str	r3, [r7, #24]
  SubPriorityBits     = ((PriorityGroupTmp + (uint32_t)(__NVIC_PRIO_BITS)) < (uint32_t)7UL) ? (uint32_t)0UL : (uint32_t)((PriorityGroupTmp - 7UL) + (uint32_t)(__NVIC_PRIO_BITS));
 80006b2:	69fb      	ldr	r3, [r7, #28]
 80006b4:	3304      	adds	r3, #4
 80006b6:	2b06      	cmp	r3, #6
 80006b8:	d902      	bls.n	80006c0 <NVIC_EncodePriority+0x30>
 80006ba:	69fb      	ldr	r3, [r7, #28]
 80006bc:	3b03      	subs	r3, #3
 80006be:	e000      	b.n	80006c2 <NVIC_EncodePriority+0x32>
 80006c0:	2300      	movs	r3, #0
 80006c2:	617b      	str	r3, [r7, #20]

  return (
           ((PreemptPriority & (uint32_t)((1UL << (PreemptPriorityBits)) - 1UL)) << SubPriorityBits) |
 80006c4:	f04f 32ff 	mov.w	r2, #4294967295
 80006c8:	69bb      	ldr	r3, [r7, #24]
 80006ca:	fa02 f303 	lsl.w	r3, r2, r3
 80006ce:	43da      	mvns	r2, r3
 80006d0:	68bb      	ldr	r3, [r7, #8]
 80006d2:	401a      	ands	r2, r3
 80006d4:	697b      	ldr	r3, [r7, #20]
 80006d6:	409a      	lsls	r2, r3
           ((SubPriority     & (uint32_t)((1UL << (SubPriorityBits    )) - 1UL)))
 80006d8:	f04f 31ff 	mov.w	r1, #4294967295
 80006dc:	697b      	ldr	r3, [r7, #20]
 80006de:	fa01 f303 	lsl.w	r3, r1, r3
 80006e2:	43d9      	mvns	r1, r3
 80006e4:	687b      	ldr	r3, [r7, #4]
 80006e6:	400b      	ands	r3, r1
           ((PreemptPriority & (uint32_t)((1UL << (PreemptPriorityBits)) - 1UL)) << SubPriorityBits) |
 80006e8:	4313      	orrs	r3, r2
         );
}
 80006ea:	4618      	mov	r0, r3
 80006ec:	3724      	adds	r7, #36	; 0x24
 80006ee:	46bd      	mov	sp, r7
 80006f0:	bc80      	pop	{r7}
 80006f2:	4770      	bx	lr

080006f4 <SysTick_Config>:
  \note    When the variable <b>__Vendor_SysTickConfig</b> is set to 1, then the
           function <b>SysTick_Config</b> is not included. In this case, the file <b><i>device</i>.h</b>
           must contain a vendor-specific implementation of this function.
 */
__STATIC_INLINE uint32_t SysTick_Config(uint32_t ticks)
{
 80006f4:	b580      	push	{r7, lr}
 80006f6:	b082      	sub	sp, #8
 80006f8:	af00      	add	r7, sp, #0
 80006fa:	6078      	str	r0, [r7, #4]
  if ((ticks - 1UL) > SysTick_LOAD_RELOAD_Msk)
 80006fc:	687b      	ldr	r3, [r7, #4]
 80006fe:	3b01      	subs	r3, #1
 8000700:	f1b3 7f80 	cmp.w	r3, #16777216	; 0x1000000
 8000704:	d301      	bcc.n	800070a <SysTick_Config+0x16>
  {
    return (1UL);                                                   /* Reload value impossible */
 8000706:	2301      	movs	r3, #1
 8000708:	e00f      	b.n	800072a <SysTick_Config+0x36>
  }

  SysTick->LOAD  = (uint32_t)(ticks - 1UL);                         /* set reload register */
 800070a:	4a0a      	ldr	r2, [pc, #40]	; (8000734 <SysTick_Config+0x40>)
 800070c:	687b      	ldr	r3, [r7, #4]
 800070e:	3b01      	subs	r3, #1
 8000710:	6053      	str	r3, [r2, #4]
  NVIC_SetPriority (SysTick_IRQn, (1UL << __NVIC_PRIO_BITS) - 1UL); /* set Priority for Systick Interrupt */
 8000712:	210f      	movs	r1, #15
 8000714:	f04f 30ff 	mov.w	r0, #4294967295
 8000718:	f7ff ff90 	bl	800063c <__NVIC_SetPriority>
  SysTick->VAL   = 0UL;                                             /* Load the SysTick Counter Value */
 800071c:	4b05      	ldr	r3, [pc, #20]	; (8000734 <SysTick_Config+0x40>)
 800071e:	2200      	movs	r2, #0
 8000720:	609a      	str	r2, [r3, #8]
  SysTick->CTRL  = SysTick_CTRL_CLKSOURCE_Msk |
 8000722:	4b04      	ldr	r3, [pc, #16]	; (8000734 <SysTick_Config+0x40>)
 8000724:	2207      	movs	r2, #7
 8000726:	601a      	str	r2, [r3, #0]
                   SysTick_CTRL_TICKINT_Msk   |
                   SysTick_CTRL_ENABLE_Msk;                         /* Enable SysTick IRQ and SysTick Timer */
  return (0UL);                                                     /* Function successful */
 8000728:	2300      	movs	r3, #0
}
 800072a:	4618      	mov	r0, r3
 800072c:	3708      	adds	r7, #8
 800072e:	46bd      	mov	sp, r7
 8000730:	bd80      	pop	{r7, pc}
 8000732:	bf00      	nop
 8000734:	e000e010 	.word	0xe000e010

08000738 <HAL_NVIC_SetPriorityGrouping>:
  * @note   When the NVIC_PriorityGroup_0 is selected, IRQ preemption is no more possible. 
  *         The pending IRQ priority will be managed only by the subpriority. 
  * @retval None
  */
void HAL_NVIC_SetPriorityGrouping(uint32_t PriorityGroup)
{
 8000738:	b580      	push	{r7, lr}
 800073a:	b082      	sub	sp, #8
 800073c:	af00      	add	r7, sp, #0
 800073e:	6078      	str	r0, [r7, #4]
  /* Check the parameters */
  assert_param(IS_NVIC_PRIORITY_GROUP(PriorityGroup));
  
  /* Set the PRIGROUP[10:8] bits according to the PriorityGroup parameter value */
  NVIC_SetPriorityGrouping(PriorityGroup);
 8000740:	6878      	ldr	r0, [r7, #4]
 8000742:	f7ff ff2d 	bl	80005a0 <__NVIC_SetPriorityGrouping>
}
 8000746:	bf00      	nop
 8000748:	3708      	adds	r7, #8
 800074a:	46bd      	mov	sp, r7
 800074c:	bd80      	pop	{r7, pc}

0800074e <HAL_NVIC_SetPriority>:
  *         This parameter can be a value between 0 and 15
  *         A lower priority value indicates a higher priority.          
  * @retval None
  */
void HAL_NVIC_SetPriority(IRQn_Type IRQn, uint32_t PreemptPriority, uint32_t SubPriority)
{ 
 800074e:	b580      	push	{r7, lr}
 8000750:	b086      	sub	sp, #24
 8000752:	af00      	add	r7, sp, #0
 8000754:	4603      	mov	r3, r0
 8000756:	60b9      	str	r1, [r7, #8]
 8000758:	607a      	str	r2, [r7, #4]
 800075a:	73fb      	strb	r3, [r7, #15]
  uint32_t prioritygroup = 0x00U;
 800075c:	2300      	movs	r3, #0
 800075e:	617b      	str	r3, [r7, #20]
  
  /* Check the parameters */
  assert_param(IS_NVIC_SUB_PRIORITY(SubPriority));
  assert_param(IS_NVIC_PREEMPTION_PRIORITY(PreemptPriority));
  
  prioritygroup = NVIC_GetPriorityGrouping();
 8000760:	f7ff ff42 	bl	80005e8 <__NVIC_GetPriorityGrouping>
 8000764:	6178      	str	r0, [r7, #20]
  
  NVIC_SetPriority(IRQn, NVIC_EncodePriority(prioritygroup, PreemptPriority, SubPriority));
 8000766:	687a      	ldr	r2, [r7, #4]
 8000768:	68b9      	ldr	r1, [r7, #8]
 800076a:	6978      	ldr	r0, [r7, #20]
 800076c:	f7ff ff90 	bl	8000690 <NVIC_EncodePriority>
 8000770:	4602      	mov	r2, r0
 8000772:	f997 300f 	ldrsb.w	r3, [r7, #15]
 8000776:	4611      	mov	r1, r2
 8000778:	4618      	mov	r0, r3
 800077a:	f7ff ff5f 	bl	800063c <__NVIC_SetPriority>
}
 800077e:	bf00      	nop
 8000780:	3718      	adds	r7, #24
 8000782:	46bd      	mov	sp, r7
 8000784:	bd80      	pop	{r7, pc}

08000786 <HAL_NVIC_EnableIRQ>:
  *         This parameter can be an enumerator of IRQn_Type enumeration
  *         (For the complete STM32 Devices IRQ Channels list, please refer to the appropriate CMSIS device file (stm32f10xxx.h))
  * @retval None
  */
void HAL_NVIC_EnableIRQ(IRQn_Type IRQn)
{
 8000786:	b580      	push	{r7, lr}
 8000788:	b082      	sub	sp, #8
 800078a:	af00      	add	r7, sp, #0
 800078c:	4603      	mov	r3, r0
 800078e:	71fb      	strb	r3, [r7, #7]
  /* Check the parameters */
  assert_param(IS_NVIC_DEVICE_IRQ(IRQn));

  /* Enable interrupt */
  NVIC_EnableIRQ(IRQn);
 8000790:	f997 3007 	ldrsb.w	r3, [r7, #7]
 8000794:	4618      	mov	r0, r3
 8000796:	f7ff ff35 	bl	8000604 <__NVIC_EnableIRQ>
}
 800079a:	bf00      	nop
 800079c:	3708      	adds	r7, #8
 800079e:	46bd      	mov	sp, r7
 80007a0:	bd80      	pop	{r7, pc}

080007a2 <HAL_SYSTICK_Config>:
  * @param  TicksNumb: Specifies the ticks Number of ticks between two interrupts.
  * @retval status:  - 0  Function succeeded.
  *                  - 1  Function failed.
  */
uint32_t HAL_SYSTICK_Config(uint32_t TicksNumb)
{
 80007a2:	b580      	push	{r7, lr}
 80007a4:	b082      	sub	sp, #8
 80007a6:	af00      	add	r7, sp, #0
 80007a8:	6078      	str	r0, [r7, #4]
   return SysTick_Config(TicksNumb);
 80007aa:	6878      	ldr	r0, [r7, #4]
 80007ac:	f7ff ffa2 	bl	80006f4 <SysTick_Config>
 80007b0:	4603      	mov	r3, r0
}
 80007b2:	4618      	mov	r0, r3
 80007b4:	3708      	adds	r7, #8
 80007b6:	46bd      	mov	sp, r7
 80007b8:	bd80      	pop	{r7, pc}
	...

080007bc <HAL_GPIO_Init>:
  * @param  GPIO_Init: pointer to a GPIO_InitTypeDef structure that contains
  *         the configuration information for the specified GPIO peripheral.
  * @retval None
  */
void HAL_GPIO_Init(GPIO_TypeDef  *GPIOx, GPIO_InitTypeDef *GPIO_Init)
{
 80007bc:	b480      	push	{r7}
 80007be:	b08b      	sub	sp, #44	; 0x2c
 80007c0:	af00      	add	r7, sp, #0
 80007c2:	6078      	str	r0, [r7, #4]
 80007c4:	6039      	str	r1, [r7, #0]
  uint32_t position = 0x00u;
 80007c6:	2300      	movs	r3, #0
 80007c8:	627b      	str	r3, [r7, #36]	; 0x24
  uint32_t ioposition;
  uint32_t iocurrent;
  uint32_t temp;
  uint32_t config = 0x00u;
 80007ca:	2300      	movs	r3, #0
 80007cc:	623b      	str	r3, [r7, #32]
  assert_param(IS_GPIO_ALL_INSTANCE(GPIOx));
  assert_param(IS_GPIO_PIN(GPIO_Init->Pin));
  assert_param(IS_GPIO_MODE(GPIO_Init->Mode));

  /* Configure the port pins */
  while (((GPIO_Init->Pin) >> position) != 0x00u)
 80007ce:	e161      	b.n	8000a94 <HAL_GPIO_Init+0x2d8>
  {
    /* Get the IO position */
    ioposition = (0x01uL << position);
 80007d0:	2201      	movs	r2, #1
 80007d2:	6a7b      	ldr	r3, [r7, #36]	; 0x24
 80007d4:	fa02 f303 	lsl.w	r3, r2, r3
 80007d8:	61fb      	str	r3, [r7, #28]

    /* Get the current IO position */
    iocurrent = (uint32_t)(GPIO_Init->Pin) & ioposition;
 80007da:	683b      	ldr	r3, [r7, #0]
 80007dc:	681b      	ldr	r3, [r3, #0]
 80007de:	69fa      	ldr	r2, [r7, #28]
 80007e0:	4013      	ands	r3, r2
 80007e2:	61bb      	str	r3, [r7, #24]

    if (iocurrent == ioposition)
 80007e4:	69ba      	ldr	r2, [r7, #24]
 80007e6:	69fb      	ldr	r3, [r7, #28]
 80007e8:	429a      	cmp	r2, r3
 80007ea:	f040 8150 	bne.w	8000a8e <HAL_GPIO_Init+0x2d2>
    {
      /* Check the Alternate function parameters */
      assert_param(IS_GPIO_AF_INSTANCE(GPIOx));

      /* Based on the required mode, filling config variable with MODEy[1:0] and CNFy[3:2] corresponding bits */
      switch (GPIO_Init->Mode)
 80007ee:	683b      	ldr	r3, [r7, #0]
 80007f0:	685b      	ldr	r3, [r3, #4]
 80007f2:	4a97      	ldr	r2, [pc, #604]	; (8000a50 <HAL_GPIO_Init+0x294>)
 80007f4:	4293      	cmp	r3, r2
 80007f6:	d05e      	beq.n	80008b6 <HAL_GPIO_Init+0xfa>
 80007f8:	4a95      	ldr	r2, [pc, #596]	; (8000a50 <HAL_GPIO_Init+0x294>)
 80007fa:	4293      	cmp	r3, r2
 80007fc:	d875      	bhi.n	80008ea <HAL_GPIO_Init+0x12e>
 80007fe:	4a95      	ldr	r2, [pc, #596]	; (8000a54 <HAL_GPIO_Init+0x298>)
 8000800:	4293      	cmp	r3, r2
 8000802:	d058      	beq.n	80008b6 <HAL_GPIO_Init+0xfa>
 8000804:	4a93      	ldr	r2, [pc, #588]	; (8000a54 <HAL_GPIO_Init+0x298>)
 8000806:	4293      	cmp	r3, r2
 8000808:	d86f      	bhi.n	80008ea <HAL_GPIO_Init+0x12e>
 800080a:	4a93      	ldr	r2, [pc, #588]	; (8000a58 <HAL_GPIO_Init+0x29c>)
 800080c:	4293      	cmp	r3, r2
 800080e:	d052      	beq.n	80008b6 <HAL_GPIO_Init+0xfa>
 8000810:	4a91      	ldr	r2, [pc, #580]	; (8000a58 <HAL_GPIO_Init+0x29c>)
 8000812:	4293      	cmp	r3, r2
 8000814:	d869      	bhi.n	80008ea <HAL_GPIO_Init+0x12e>
 8000816:	4a91      	ldr	r2, [pc, #580]	; (8000a5c <HAL_GPIO_Init+0x2a0>)
 8000818:	4293      	cmp	r3, r2
 800081a:	d04c      	beq.n	80008b6 <HAL_GPIO_Init+0xfa>
 800081c:	4a8f      	ldr	r2, [pc, #572]	; (8000a5c <HAL_GPIO_Init+0x2a0>)
 800081e:	4293      	cmp	r3, r2
 8000820:	d863      	bhi.n	80008ea <HAL_GPIO_Init+0x12e>
 8000822:	4a8f      	ldr	r2, [pc, #572]	; (8000a60 <HAL_GPIO_Init+0x2a4>)
 8000824:	4293      	cmp	r3, r2
 8000826:	d046      	beq.n	80008b6 <HAL_GPIO_Init+0xfa>
 8000828:	4a8d      	ldr	r2, [pc, #564]	; (8000a60 <HAL_GPIO_Init+0x2a4>)
 800082a:	4293      	cmp	r3, r2
 800082c:	d85d      	bhi.n	80008ea <HAL_GPIO_Init+0x12e>
 800082e:	2b12      	cmp	r3, #18
 8000830:	d82a      	bhi.n	8000888 <HAL_GPIO_Init+0xcc>
 8000832:	2b12      	cmp	r3, #18
 8000834:	d859      	bhi.n	80008ea <HAL_GPIO_Init+0x12e>
 8000836:	a201      	add	r2, pc, #4	; (adr r2, 800083c <HAL_GPIO_Init+0x80>)
 8000838:	f852 f023 	ldr.w	pc, [r2, r3, lsl #2]
 800083c:	080008b7 	.word	0x080008b7
 8000840:	08000891 	.word	0x08000891
 8000844:	080008a3 	.word	0x080008a3
 8000848:	080008e5 	.word	0x080008e5
 800084c:	080008eb 	.word	0x080008eb
 8000850:	080008eb 	.word	0x080008eb
 8000854:	080008eb 	.word	0x080008eb
 8000858:	080008eb 	.word	0x080008eb
 800085c:	080008eb 	.word	0x080008eb
 8000860:	080008eb 	.word	0x080008eb
 8000864:	080008eb 	.word	0x080008eb
 8000868:	080008eb 	.word	0x080008eb
 800086c:	080008eb 	.word	0x080008eb
 8000870:	080008eb 	.word	0x080008eb
 8000874:	080008eb 	.word	0x080008eb
 8000878:	080008eb 	.word	0x080008eb
 800087c:	080008eb 	.word	0x080008eb
 8000880:	08000899 	.word	0x08000899
 8000884:	080008ad 	.word	0x080008ad
 8000888:	4a76      	ldr	r2, [pc, #472]	; (8000a64 <HAL_GPIO_Init+0x2a8>)
 800088a:	4293      	cmp	r3, r2
 800088c:	d013      	beq.n	80008b6 <HAL_GPIO_Init+0xfa>
          config = GPIO_CR_MODE_INPUT + GPIO_CR_CNF_ANALOG;
          break;

        /* Parameters are checked with assert_param */
        default:
          break;
 800088e:	e02c      	b.n	80008ea <HAL_GPIO_Init+0x12e>
          config = GPIO_Init->Speed + GPIO_CR_CNF_GP_OUTPUT_PP;
 8000890:	683b      	ldr	r3, [r7, #0]
 8000892:	68db      	ldr	r3, [r3, #12]
 8000894:	623b      	str	r3, [r7, #32]
          break;
 8000896:	e029      	b.n	80008ec <HAL_GPIO_Init+0x130>
          config = GPIO_Init->Speed + GPIO_CR_CNF_GP_OUTPUT_OD;
 8000898:	683b      	ldr	r3, [r7, #0]
 800089a:	68db      	ldr	r3, [r3, #12]
 800089c:	3304      	adds	r3, #4
 800089e:	623b      	str	r3, [r7, #32]
          break;
 80008a0:	e024      	b.n	80008ec <HAL_GPIO_Init+0x130>
          config = GPIO_Init->Speed + GPIO_CR_CNF_AF_OUTPUT_PP;
 80008a2:	683b      	ldr	r3, [r7, #0]
 80008a4:	68db      	ldr	r3, [r3, #12]
 80008a6:	3308      	adds	r3, #8
 80008a8:	623b      	str	r3, [r7, #32]
          break;
 80008aa:	e01f      	b.n	80008ec <HAL_GPIO_Init+0x130>
          config = GPIO_Init->Speed + GPIO_CR_CNF_AF_OUTPUT_OD;
 80008ac:	683b      	ldr	r3, [r7, #0]
 80008ae:	68db      	ldr	r3, [r3, #12]
 80008b0:	330c      	adds	r3, #12
 80008b2:	623b      	str	r3, [r7, #32]
          break;
 80008b4:	e01a      	b.n	80008ec <HAL_GPIO_Init+0x130>
          if (GPIO_Init->Pull == GPIO_NOPULL)
 80008b6:	683b      	ldr	r3, [r7, #0]
 80008b8:	689b      	ldr	r3, [r3, #8]
 80008ba:	2b00      	cmp	r3, #0
 80008bc:	d102      	bne.n	80008c4 <HAL_GPIO_Init+0x108>
            config = GPIO_CR_MODE_INPUT + GPIO_CR_CNF_INPUT_FLOATING;
 80008be:	2304      	movs	r3, #4
 80008c0:	623b      	str	r3, [r7, #32]
          break;
 80008c2:	e013      	b.n	80008ec <HAL_GPIO_Init+0x130>
          else if (GPIO_Init->Pull == GPIO_PULLUP)
 80008c4:	683b      	ldr	r3, [r7, #0]
 80008c6:	689b      	ldr	r3, [r3, #8]
 80008c8:	2b01      	cmp	r3, #1
 80008ca:	d105      	bne.n	80008d8 <HAL_GPIO_Init+0x11c>
            config = GPIO_CR_MODE_INPUT + GPIO_CR_CNF_INPUT_PU_PD;
 80008cc:	2308      	movs	r3, #8
 80008ce:	623b      	str	r3, [r7, #32]
            GPIOx->BSRR = ioposition;
 80008d0:	687b      	ldr	r3, [r7, #4]
 80008d2:	69fa      	ldr	r2, [r7, #28]
 80008d4:	611a      	str	r2, [r3, #16]
          break;
 80008d6:	e009      	b.n	80008ec <HAL_GPIO_Init+0x130>
            config = GPIO_CR_MODE_INPUT + GPIO_CR_CNF_INPUT_PU_PD;
 80008d8:	2308      	movs	r3, #8
 80008da:	623b      	str	r3, [r7, #32]
            GPIOx->BRR = ioposition;
 80008dc:	687b      	ldr	r3, [r7, #4]
 80008de:	69fa      	ldr	r2, [r7, #28]
 80008e0:	615a      	str	r2, [r3, #20]
          break;
 80008e2:	e003      	b.n	80008ec <HAL_GPIO_Init+0x130>
          config = GPIO_CR_MODE_INPUT + GPIO_CR_CNF_ANALOG;
 80008e4:	2300      	movs	r3, #0
 80008e6:	623b      	str	r3, [r7, #32]
          break;
 80008e8:	e000      	b.n	80008ec <HAL_GPIO_Init+0x130>
          break;
 80008ea:	bf00      	nop
      }

      /* Check if the current bit belongs to first half or last half of the pin count number
       in order to address CRH or CRL register*/
      configregister = (iocurrent < GPIO_PIN_8) ? &GPIOx->CRL     : &GPIOx->CRH;
 80008ec:	69bb      	ldr	r3, [r7, #24]
 80008ee:	2bff      	cmp	r3, #255	; 0xff
 80008f0:	d801      	bhi.n	80008f6 <HAL_GPIO_Init+0x13a>
 80008f2:	687b      	ldr	r3, [r7, #4]
 80008f4:	e001      	b.n	80008fa <HAL_GPIO_Init+0x13e>
 80008f6:	687b      	ldr	r3, [r7, #4]
 80008f8:	3304      	adds	r3, #4
 80008fa:	617b      	str	r3, [r7, #20]
      registeroffset = (iocurrent < GPIO_PIN_8) ? (position << 2u) : ((position - 8u) << 2u);
 80008fc:	69bb      	ldr	r3, [r7, #24]
 80008fe:	2bff      	cmp	r3, #255	; 0xff
 8000900:	d802      	bhi.n	8000908 <HAL_GPIO_Init+0x14c>
 8000902:	6a7b      	ldr	r3, [r7, #36]	; 0x24
 8000904:	009b      	lsls	r3, r3, #2
 8000906:	e002      	b.n	800090e <HAL_GPIO_Init+0x152>
 8000908:	6a7b      	ldr	r3, [r7, #36]	; 0x24
 800090a:	3b08      	subs	r3, #8
 800090c:	009b      	lsls	r3, r3, #2
 800090e:	613b      	str	r3, [r7, #16]

      /* Apply the new configuration of the pin to the register */
      MODIFY_REG((*configregister), ((GPIO_CRL_MODE0 | GPIO_CRL_CNF0) << registeroffset), (config << registeroffset));
 8000910:	697b      	ldr	r3, [r7, #20]
 8000912:	681a      	ldr	r2, [r3, #0]
 8000914:	210f      	movs	r1, #15
 8000916:	693b      	ldr	r3, [r7, #16]
 8000918:	fa01 f303 	lsl.w	r3, r1, r3
 800091c:	43db      	mvns	r3, r3
 800091e:	401a      	ands	r2, r3
 8000920:	6a39      	ldr	r1, [r7, #32]
 8000922:	693b      	ldr	r3, [r7, #16]
 8000924:	fa01 f303 	lsl.w	r3, r1, r3
 8000928:	431a      	orrs	r2, r3
 800092a:	697b      	ldr	r3, [r7, #20]
 800092c:	601a      	str	r2, [r3, #0]

      /*--------------------- EXTI Mode Configuration ------------------------*/
      /* Configure the External Interrupt or event for the current IO */
      if ((GPIO_Init->Mode & EXTI_MODE) == EXTI_MODE)
 800092e:	683b      	ldr	r3, [r7, #0]
 8000930:	685b      	ldr	r3, [r3, #4]
 8000932:	f003 5380 	and.w	r3, r3, #268435456	; 0x10000000
 8000936:	2b00      	cmp	r3, #0
 8000938:	f000 80a9 	beq.w	8000a8e <HAL_GPIO_Init+0x2d2>
      {
        /* Enable AFIO Clock */
        __HAL_RCC_AFIO_CLK_ENABLE();
 800093c:	4b4a      	ldr	r3, [pc, #296]	; (8000a68 <HAL_GPIO_Init+0x2ac>)
 800093e:	699b      	ldr	r3, [r3, #24]
 8000940:	4a49      	ldr	r2, [pc, #292]	; (8000a68 <HAL_GPIO_Init+0x2ac>)
 8000942:	f043 0301 	orr.w	r3, r3, #1
 8000946:	6193      	str	r3, [r2, #24]
 8000948:	4b47      	ldr	r3, [pc, #284]	; (8000a68 <HAL_GPIO_Init+0x2ac>)
 800094a:	699b      	ldr	r3, [r3, #24]
 800094c:	f003 0301 	and.w	r3, r3, #1
 8000950:	60bb      	str	r3, [r7, #8]
 8000952:	68bb      	ldr	r3, [r7, #8]
        temp = AFIO->EXTICR[position >> 2u];
 8000954:	4a45      	ldr	r2, [pc, #276]	; (8000a6c <HAL_GPIO_Init+0x2b0>)
 8000956:	6a7b      	ldr	r3, [r7, #36]	; 0x24
 8000958:	089b      	lsrs	r3, r3, #2
 800095a:	3302      	adds	r3, #2
 800095c:	f852 3023 	ldr.w	r3, [r2, r3, lsl #2]
 8000960:	60fb      	str	r3, [r7, #12]
        CLEAR_BIT(temp, (0x0Fu) << (4u * (position & 0x03u)));
 8000962:	6a7b      	ldr	r3, [r7, #36]	; 0x24
 8000964:	f003 0303 	and.w	r3, r3, #3
 8000968:	009b      	lsls	r3, r3, #2
 800096a:	220f      	movs	r2, #15
 800096c:	fa02 f303 	lsl.w	r3, r2, r3
 8000970:	43db      	mvns	r3, r3
 8000972:	68fa      	ldr	r2, [r7, #12]
 8000974:	4013      	ands	r3, r2
 8000976:	60fb      	str	r3, [r7, #12]
        SET_BIT(temp, (GPIO_GET_INDEX(GPIOx)) << (4u * (position & 0x03u)));
 8000978:	687b      	ldr	r3, [r7, #4]
 800097a:	4a3d      	ldr	r2, [pc, #244]	; (8000a70 <HAL_GPIO_Init+0x2b4>)
 800097c:	4293      	cmp	r3, r2
 800097e:	d00d      	beq.n	800099c <HAL_GPIO_Init+0x1e0>
 8000980:	687b      	ldr	r3, [r7, #4]
 8000982:	4a3c      	ldr	r2, [pc, #240]	; (8000a74 <HAL_GPIO_Init+0x2b8>)
 8000984:	4293      	cmp	r3, r2
 8000986:	d007      	beq.n	8000998 <HAL_GPIO_Init+0x1dc>
 8000988:	687b      	ldr	r3, [r7, #4]
 800098a:	4a3b      	ldr	r2, [pc, #236]	; (8000a78 <HAL_GPIO_Init+0x2bc>)
 800098c:	4293      	cmp	r3, r2
 800098e:	d101      	bne.n	8000994 <HAL_GPIO_Init+0x1d8>
 8000990:	2302      	movs	r3, #2
 8000992:	e004      	b.n	800099e <HAL_GPIO_Init+0x1e2>
 8000994:	2303      	movs	r3, #3
 8000996:	e002      	b.n	800099e <HAL_GPIO_Init+0x1e2>
 8000998:	2301      	movs	r3, #1
 800099a:	e000      	b.n	800099e <HAL_GPIO_Init+0x1e2>
 800099c:	2300      	movs	r3, #0
 800099e:	6a7a      	ldr	r2, [r7, #36]	; 0x24
 80009a0:	f002 0203 	and.w	r2, r2, #3
 80009a4:	0092      	lsls	r2, r2, #2
 80009a6:	4093      	lsls	r3, r2
 80009a8:	68fa      	ldr	r2, [r7, #12]
 80009aa:	4313      	orrs	r3, r2
 80009ac:	60fb      	str	r3, [r7, #12]
        AFIO->EXTICR[position >> 2u] = temp;
 80009ae:	492f      	ldr	r1, [pc, #188]	; (8000a6c <HAL_GPIO_Init+0x2b0>)
 80009b0:	6a7b      	ldr	r3, [r7, #36]	; 0x24
 80009b2:	089b      	lsrs	r3, r3, #2
 80009b4:	3302      	adds	r3, #2
 80009b6:	68fa      	ldr	r2, [r7, #12]
 80009b8:	f841 2023 	str.w	r2, [r1, r3, lsl #2]


        /* Enable or disable the rising trigger */
        if ((GPIO_Init->Mode & RISING_EDGE) == RISING_EDGE)
 80009bc:	683b      	ldr	r3, [r7, #0]
 80009be:	685b      	ldr	r3, [r3, #4]
 80009c0:	f403 1380 	and.w	r3, r3, #1048576	; 0x100000
 80009c4:	2b00      	cmp	r3, #0
 80009c6:	d006      	beq.n	80009d6 <HAL_GPIO_Init+0x21a>
        {
          SET_BIT(EXTI->RTSR, iocurrent);
 80009c8:	4b2c      	ldr	r3, [pc, #176]	; (8000a7c <HAL_GPIO_Init+0x2c0>)
 80009ca:	689a      	ldr	r2, [r3, #8]
 80009cc:	492b      	ldr	r1, [pc, #172]	; (8000a7c <HAL_GPIO_Init+0x2c0>)
 80009ce:	69bb      	ldr	r3, [r7, #24]
 80009d0:	4313      	orrs	r3, r2
 80009d2:	608b      	str	r3, [r1, #8]
 80009d4:	e006      	b.n	80009e4 <HAL_GPIO_Init+0x228>
        }
        else
        {
          CLEAR_BIT(EXTI->RTSR, iocurrent);
 80009d6:	4b29      	ldr	r3, [pc, #164]	; (8000a7c <HAL_GPIO_Init+0x2c0>)
 80009d8:	689a      	ldr	r2, [r3, #8]
 80009da:	69bb      	ldr	r3, [r7, #24]
 80009dc:	43db      	mvns	r3, r3
 80009de:	4927      	ldr	r1, [pc, #156]	; (8000a7c <HAL_GPIO_Init+0x2c0>)
 80009e0:	4013      	ands	r3, r2
 80009e2:	608b      	str	r3, [r1, #8]
        }

        /* Enable or disable the falling trigger */
        if ((GPIO_Init->Mode & FALLING_EDGE) == FALLING_EDGE)
 80009e4:	683b      	ldr	r3, [r7, #0]
 80009e6:	685b      	ldr	r3, [r3, #4]
 80009e8:	f403 1300 	and.w	r3, r3, #2097152	; 0x200000
 80009ec:	2b00      	cmp	r3, #0
 80009ee:	d006      	beq.n	80009fe <HAL_GPIO_Init+0x242>
        {
          SET_BIT(EXTI->FTSR, iocurrent);
 80009f0:	4b22      	ldr	r3, [pc, #136]	; (8000a7c <HAL_GPIO_Init+0x2c0>)
 80009f2:	68da      	ldr	r2, [r3, #12]
 80009f4:	4921      	ldr	r1, [pc, #132]	; (8000a7c <HAL_GPIO_Init+0x2c0>)
 80009f6:	69bb      	ldr	r3, [r7, #24]
 80009f8:	4313      	orrs	r3, r2
 80009fa:	60cb      	str	r3, [r1, #12]
 80009fc:	e006      	b.n	8000a0c <HAL_GPIO_Init+0x250>
        }
        else
        {
          CLEAR_BIT(EXTI->FTSR, iocurrent);
 80009fe:	4b1f      	ldr	r3, [pc, #124]	; (8000a7c <HAL_GPIO_Init+0x2c0>)
 8000a00:	68da      	ldr	r2, [r3, #12]
 8000a02:	69bb      	ldr	r3, [r7, #24]
 8000a04:	43db      	mvns	r3, r3
 8000a06:	491d      	ldr	r1, [pc, #116]	; (8000a7c <HAL_GPIO_Init+0x2c0>)
 8000a08:	4013      	ands	r3, r2
 8000a0a:	60cb      	str	r3, [r1, #12]
        }

        /* Configure the event mask */
        if ((GPIO_Init->Mode & GPIO_MODE_EVT) == GPIO_MODE_EVT)
 8000a0c:	683b      	ldr	r3, [r7, #0]
 8000a0e:	685b      	ldr	r3, [r3, #4]
 8000a10:	f403 3300 	and.w	r3, r3, #131072	; 0x20000
 8000a14:	2b00      	cmp	r3, #0
 8000a16:	d006      	beq.n	8000a26 <HAL_GPIO_Init+0x26a>
        {
          SET_BIT(EXTI->EMR, iocurrent);
 8000a18:	4b18      	ldr	r3, [pc, #96]	; (8000a7c <HAL_GPIO_Init+0x2c0>)
 8000a1a:	685a      	ldr	r2, [r3, #4]
 8000a1c:	4917      	ldr	r1, [pc, #92]	; (8000a7c <HAL_GPIO_Init+0x2c0>)
 8000a1e:	69bb      	ldr	r3, [r7, #24]
 8000a20:	4313      	orrs	r3, r2
 8000a22:	604b      	str	r3, [r1, #4]
 8000a24:	e006      	b.n	8000a34 <HAL_GPIO_Init+0x278>
        }
        else
        {
          CLEAR_BIT(EXTI->EMR, iocurrent);
 8000a26:	4b15      	ldr	r3, [pc, #84]	; (8000a7c <HAL_GPIO_Init+0x2c0>)
 8000a28:	685a      	ldr	r2, [r3, #4]
 8000a2a:	69bb      	ldr	r3, [r7, #24]
 8000a2c:	43db      	mvns	r3, r3
 8000a2e:	4913      	ldr	r1, [pc, #76]	; (8000a7c <HAL_GPIO_Init+0x2c0>)
 8000a30:	4013      	ands	r3, r2
 8000a32:	604b      	str	r3, [r1, #4]
        }

        /* Configure the interrupt mask */
        if ((GPIO_Init->Mode & GPIO_MODE_IT) == GPIO_MODE_IT)
 8000a34:	683b      	ldr	r3, [r7, #0]
 8000a36:	685b      	ldr	r3, [r3, #4]
 8000a38:	f403 3380 	and.w	r3, r3, #65536	; 0x10000
 8000a3c:	2b00      	cmp	r3, #0
 8000a3e:	d01f      	beq.n	8000a80 <HAL_GPIO_Init+0x2c4>
        {
          SET_BIT(EXTI->IMR, iocurrent);
 8000a40:	4b0e      	ldr	r3, [pc, #56]	; (8000a7c <HAL_GPIO_Init+0x2c0>)
 8000a42:	681a      	ldr	r2, [r3, #0]
 8000a44:	490d      	ldr	r1, [pc, #52]	; (8000a7c <HAL_GPIO_Init+0x2c0>)
 8000a46:	69bb      	ldr	r3, [r7, #24]
 8000a48:	4313      	orrs	r3, r2
 8000a4a:	600b      	str	r3, [r1, #0]
 8000a4c:	e01f      	b.n	8000a8e <HAL_GPIO_Init+0x2d2>
 8000a4e:	bf00      	nop
 8000a50:	10320000 	.word	0x10320000
 8000a54:	10310000 	.word	0x10310000
 8000a58:	10220000 	.word	0x10220000
 8000a5c:	10210000 	.word	0x10210000
 8000a60:	10120000 	.word	0x10120000
 8000a64:	10110000 	.word	0x10110000
 8000a68:	40021000 	.word	0x40021000
 8000a6c:	40010000 	.word	0x40010000
 8000a70:	40010800 	.word	0x40010800
 8000a74:	40010c00 	.word	0x40010c00
 8000a78:	40011000 	.word	0x40011000
 8000a7c:	40010400 	.word	0x40010400
        }
        else
        {
          CLEAR_BIT(EXTI->IMR, iocurrent);
 8000a80:	4b0b      	ldr	r3, [pc, #44]	; (8000ab0 <HAL_GPIO_Init+0x2f4>)
 8000a82:	681a      	ldr	r2, [r3, #0]
 8000a84:	69bb      	ldr	r3, [r7, #24]
 8000a86:	43db      	mvns	r3, r3
 8000a88:	4909      	ldr	r1, [pc, #36]	; (8000ab0 <HAL_GPIO_Init+0x2f4>)
 8000a8a:	4013      	ands	r3, r2
 8000a8c:	600b      	str	r3, [r1, #0]
        }
      }
    }

	position++;
 8000a8e:	6a7b      	ldr	r3, [r7, #36]	; 0x24
 8000a90:	3301      	adds	r3, #1
 8000a92:	627b      	str	r3, [r7, #36]	; 0x24
  while (((GPIO_Init->Pin) >> position) != 0x00u)
 8000a94:	683b      	ldr	r3, [r7, #0]
 8000a96:	681a      	ldr	r2, [r3, #0]
 8000a98:	6a7b      	ldr	r3, [r7, #36]	; 0x24
 8000a9a:	fa22 f303 	lsr.w	r3, r2, r3
 8000a9e:	2b00      	cmp	r3, #0
 8000aa0:	f47f ae96 	bne.w	80007d0 <HAL_GPIO_Init+0x14>
  }
}
 8000aa4:	bf00      	nop
 8000aa6:	bf00      	nop
 8000aa8:	372c      	adds	r7, #44	; 0x2c
 8000aaa:	46bd      	mov	sp, r7
 8000aac:	bc80      	pop	{r7}
 8000aae:	4770      	bx	lr
 8000ab0:	40010400 	.word	0x40010400

08000ab4 <HAL_GPIO_WritePin>:
  *            @arg GPIO_PIN_RESET: to clear the port pin
  *            @arg GPIO_PIN_SET: to set the port pin
  * @retval None
  */
void HAL_GPIO_WritePin(GPIO_TypeDef *GPIOx, uint16_t GPIO_Pin, GPIO_PinState PinState)
{
 8000ab4:	b480      	push	{r7}
 8000ab6:	b083      	sub	sp, #12
 8000ab8:	af00      	add	r7, sp, #0
 8000aba:	6078      	str	r0, [r7, #4]
 8000abc:	460b      	mov	r3, r1
 8000abe:	807b      	strh	r3, [r7, #2]
 8000ac0:	4613      	mov	r3, r2
 8000ac2:	707b      	strb	r3, [r7, #1]
  /* Check the parameters */
  assert_param(IS_GPIO_PIN(GPIO_Pin));
  assert_param(IS_GPIO_PIN_ACTION(PinState));

  if (PinState != GPIO_PIN_RESET)
 8000ac4:	787b      	ldrb	r3, [r7, #1]
 8000ac6:	2b00      	cmp	r3, #0
 8000ac8:	d003      	beq.n	8000ad2 <HAL_GPIO_WritePin+0x1e>
  {
    GPIOx->BSRR = GPIO_Pin;
 8000aca:	887a      	ldrh	r2, [r7, #2]
 8000acc:	687b      	ldr	r3, [r7, #4]
 8000ace:	611a      	str	r2, [r3, #16]
  }
  else
  {
    GPIOx->BSRR = (uint32_t)GPIO_Pin << 16u;
  }
}
 8000ad0:	e003      	b.n	8000ada <HAL_GPIO_WritePin+0x26>
    GPIOx->BSRR = (uint32_t)GPIO_Pin << 16u;
 8000ad2:	887b      	ldrh	r3, [r7, #2]
 8000ad4:	041a      	lsls	r2, r3, #16
 8000ad6:	687b      	ldr	r3, [r7, #4]
 8000ad8:	611a      	str	r2, [r3, #16]
}
 8000ada:	bf00      	nop
 8000adc:	370c      	adds	r7, #12
 8000ade:	46bd      	mov	sp, r7
 8000ae0:	bc80      	pop	{r7}
 8000ae2:	4770      	bx	lr

08000ae4 <HAL_GPIO_TogglePin>:
  * @param  GPIOx: where x can be (A..G depending on device used) to select the GPIO peripheral
  * @param  GPIO_Pin: Specifies the pins to be toggled.
  * @retval None
  */
void HAL_GPIO_TogglePin(GPIO_TypeDef *GPIOx, uint16_t GPIO_Pin)
{
 8000ae4:	b480      	push	{r7}
 8000ae6:	b085      	sub	sp, #20
 8000ae8:	af00      	add	r7, sp, #0
 8000aea:	6078      	str	r0, [r7, #4]
 8000aec:	460b      	mov	r3, r1
 8000aee:	807b      	strh	r3, [r7, #2]

  /* Check the parameters */
  assert_param(IS_GPIO_PIN(GPIO_Pin));

  /* get current Output Data Register value */
  odr = GPIOx->ODR;
 8000af0:	687b      	ldr	r3, [r7, #4]
 8000af2:	68db      	ldr	r3, [r3, #12]
 8000af4:	60fb      	str	r3, [r7, #12]

  /* Set selected pins that were at low level, and reset ones that were high */
  GPIOx->BSRR = ((odr & GPIO_Pin) << GPIO_NUMBER) | (~odr & GPIO_Pin);
 8000af6:	887a      	ldrh	r2, [r7, #2]
 8000af8:	68fb      	ldr	r3, [r7, #12]
 8000afa:	4013      	ands	r3, r2
 8000afc:	041a      	lsls	r2, r3, #16
 8000afe:	68fb      	ldr	r3, [r7, #12]
 8000b00:	43d9      	mvns	r1, r3
 8000b02:	887b      	ldrh	r3, [r7, #2]
 8000b04:	400b      	ands	r3, r1
 8000b06:	431a      	orrs	r2, r3
 8000b08:	687b      	ldr	r3, [r7, #4]
 8000b0a:	611a      	str	r2, [r3, #16]
}
 8000b0c:	bf00      	nop
 8000b0e:	3714      	adds	r7, #20
 8000b10:	46bd      	mov	sp, r7
 8000b12:	bc80      	pop	{r7}
 8000b14:	4770      	bx	lr
	...

08000b18 <HAL_RCC_OscConfig>:
  *         supported by this macro. User should request a transition to HSE Off
  *         first and then HSE On or HSE Bypass.
  * @retval HAL status
  */
HAL_StatusTypeDef HAL_RCC_OscConfig(RCC_OscInitTypeDef  *RCC_OscInitStruct)
{
 8000b18:	b580      	push	{r7, lr}
 8000b1a:	b086      	sub	sp, #24
 8000b1c:	af00      	add	r7, sp, #0
 8000b1e:	6078      	str	r0, [r7, #4]
  uint32_t tickstart;
  uint32_t pll_config;

  /* Check Null pointer */
  if (RCC_OscInitStruct == NULL)
 8000b20:	687b      	ldr	r3, [r7, #4]
 8000b22:	2b00      	cmp	r3, #0
 8000b24:	d101      	bne.n	8000b2a <HAL_RCC_OscConfig+0x12>
  {
    return HAL_ERROR;
 8000b26:	2301      	movs	r3, #1
 8000b28:	e272      	b.n	8001010 <HAL_RCC_OscConfig+0x4f8>

  /* Check the parameters */
  assert_param(IS_RCC_OSCILLATORTYPE(RCC_OscInitStruct->OscillatorType));

  /*------------------------------- HSE Configuration ------------------------*/
  if (((RCC_OscInitStruct->OscillatorType) & RCC_OSCILLATORTYPE_HSE) == RCC_OSCILLATORTYPE_HSE)
 8000b2a:	687b      	ldr	r3, [r7, #4]
 8000b2c:	681b      	ldr	r3, [r3, #0]
 8000b2e:	f003 0301 	and.w	r3, r3, #1
 8000b32:	2b00      	cmp	r3, #0
 8000b34:	f000 8087 	beq.w	8000c46 <HAL_RCC_OscConfig+0x12e>
  {
    /* Check the parameters */
    assert_param(IS_RCC_HSE(RCC_OscInitStruct->HSEState));

    /* When the HSE is used as system clock or clock source for PLL in these cases it is not allowed to be disabled */
    if ((__HAL_RCC_GET_SYSCLK_SOURCE() == RCC_SYSCLKSOURCE_STATUS_HSE)
 8000b38:	4b92      	ldr	r3, [pc, #584]	; (8000d84 <HAL_RCC_OscConfig+0x26c>)
 8000b3a:	685b      	ldr	r3, [r3, #4]
 8000b3c:	f003 030c 	and.w	r3, r3, #12
 8000b40:	2b04      	cmp	r3, #4
 8000b42:	d00c      	beq.n	8000b5e <HAL_RCC_OscConfig+0x46>
        || ((__HAL_RCC_GET_SYSCLK_SOURCE() == RCC_SYSCLKSOURCE_STATUS_PLLCLK) && (__HAL_RCC_GET_PLL_OSCSOURCE() == RCC_PLLSOURCE_HSE)))
 8000b44:	4b8f      	ldr	r3, [pc, #572]	; (8000d84 <HAL_RCC_OscConfig+0x26c>)
 8000b46:	685b      	ldr	r3, [r3, #4]
 8000b48:	f003 030c 	and.w	r3, r3, #12
 8000b4c:	2b08      	cmp	r3, #8
 8000b4e:	d112      	bne.n	8000b76 <HAL_RCC_OscConfig+0x5e>
 8000b50:	4b8c      	ldr	r3, [pc, #560]	; (8000d84 <HAL_RCC_OscConfig+0x26c>)
 8000b52:	685b      	ldr	r3, [r3, #4]
 8000b54:	f403 3380 	and.w	r3, r3, #65536	; 0x10000
 8000b58:	f5b3 3f80 	cmp.w	r3, #65536	; 0x10000
 8000b5c:	d10b      	bne.n	8000b76 <HAL_RCC_OscConfig+0x5e>
    {
      if ((__HAL_RCC_GET_FLAG(RCC_FLAG_HSERDY) != RESET) && (RCC_OscInitStruct->HSEState == RCC_HSE_OFF))
 8000b5e:	4b89      	ldr	r3, [pc, #548]	; (8000d84 <HAL_RCC_OscConfig+0x26c>)
 8000b60:	681b      	ldr	r3, [r3, #0]
 8000b62:	f403 3300 	and.w	r3, r3, #131072	; 0x20000
 8000b66:	2b00      	cmp	r3, #0
 8000b68:	d06c      	beq.n	8000c44 <HAL_RCC_OscConfig+0x12c>
 8000b6a:	687b      	ldr	r3, [r7, #4]
 8000b6c:	685b      	ldr	r3, [r3, #4]
 8000b6e:	2b00      	cmp	r3, #0
 8000b70:	d168      	bne.n	8000c44 <HAL_RCC_OscConfig+0x12c>
      {
        return HAL_ERROR;
 8000b72:	2301      	movs	r3, #1
 8000b74:	e24c      	b.n	8001010 <HAL_RCC_OscConfig+0x4f8>
      }
    }
    else
    {
      /* Set the new HSE configuration ---------------------------------------*/
      __HAL_RCC_HSE_CONFIG(RCC_OscInitStruct->HSEState);
 8000b76:	687b      	ldr	r3, [r7, #4]
 8000b78:	685b      	ldr	r3, [r3, #4]
 8000b7a:	f5b3 3f80 	cmp.w	r3, #65536	; 0x10000
 8000b7e:	d106      	bne.n	8000b8e <HAL_RCC_OscConfig+0x76>
 8000b80:	4b80      	ldr	r3, [pc, #512]	; (8000d84 <HAL_RCC_OscConfig+0x26c>)
 8000b82:	681b      	ldr	r3, [r3, #0]
 8000b84:	4a7f      	ldr	r2, [pc, #508]	; (8000d84 <HAL_RCC_OscConfig+0x26c>)
 8000b86:	f443 3380 	orr.w	r3, r3, #65536	; 0x10000
 8000b8a:	6013      	str	r3, [r2, #0]
 8000b8c:	e02e      	b.n	8000bec <HAL_RCC_OscConfig+0xd4>
 8000b8e:	687b      	ldr	r3, [r7, #4]
 8000b90:	685b      	ldr	r3, [r3, #4]
 8000b92:	2b00      	cmp	r3, #0
 8000b94:	d10c      	bne.n	8000bb0 <HAL_RCC_OscConfig+0x98>
 8000b96:	4b7b      	ldr	r3, [pc, #492]	; (8000d84 <HAL_RCC_OscConfig+0x26c>)
 8000b98:	681b      	ldr	r3, [r3, #0]
 8000b9a:	4a7a      	ldr	r2, [pc, #488]	; (8000d84 <HAL_RCC_OscConfig+0x26c>)
 8000b9c:	f423 3380 	bic.w	r3, r3, #65536	; 0x10000
 8000ba0:	6013      	str	r3, [r2, #0]
 8000ba2:	4b78      	ldr	r3, [pc, #480]	; (8000d84 <HAL_RCC_OscConfig+0x26c>)
 8000ba4:	681b      	ldr	r3, [r3, #0]
 8000ba6:	4a77      	ldr	r2, [pc, #476]	; (8000d84 <HAL_RCC_OscConfig+0x26c>)
 8000ba8:	f423 2380 	bic.w	r3, r3, #262144	; 0x40000
 8000bac:	6013      	str	r3, [r2, #0]
 8000bae:	e01d      	b.n	8000bec <HAL_RCC_OscConfig+0xd4>
 8000bb0:	687b      	ldr	r3, [r7, #4]
 8000bb2:	685b      	ldr	r3, [r3, #4]
 8000bb4:	f5b3 2fa0 	cmp.w	r3, #327680	; 0x50000
 8000bb8:	d10c      	bne.n	8000bd4 <HAL_RCC_OscConfig+0xbc>
 8000bba:	4b72      	ldr	r3, [pc, #456]	; (8000d84 <HAL_RCC_OscConfig+0x26c>)
 8000bbc:	681b      	ldr	r3, [r3, #0]
 8000bbe:	4a71      	ldr	r2, [pc, #452]	; (8000d84 <HAL_RCC_OscConfig+0x26c>)
 8000bc0:	f443 2380 	orr.w	r3, r3, #262144	; 0x40000
 8000bc4:	6013      	str	r3, [r2, #0]
 8000bc6:	4b6f      	ldr	r3, [pc, #444]	; (8000d84 <HAL_RCC_OscConfig+0x26c>)
 8000bc8:	681b      	ldr	r3, [r3, #0]
 8000bca:	4a6e      	ldr	r2, [pc, #440]	; (8000d84 <HAL_RCC_OscConfig+0x26c>)
 8000bcc:	f443 3380 	orr.w	r3, r3, #65536	; 0x10000
 8000bd0:	6013      	str	r3, [r2, #0]
 8000bd2:	e00b      	b.n	8000bec <HAL_RCC_OscConfig+0xd4>
 8000bd4:	4b6b      	ldr	r3, [pc, #428]	; (8000d84 <HAL_RCC_OscConfig+0x26c>)
 8000bd6:	681b      	ldr	r3, [r3, #0]
 8000bd8:	4a6a      	ldr	r2, [pc, #424]	; (8000d84 <HAL_RCC_OscConfig+0x26c>)
 8000bda:	f423 3380 	bic.w	r3, r3, #65536	; 0x10000
 8000bde:	6013      	str	r3, [r2, #0]
 8000be0:	4b68      	ldr	r3, [pc, #416]	; (8000d84 <HAL_RCC_OscConfig+0x26c>)
 8000be2:	681b      	ldr	r3, [r3, #0]
 8000be4:	4a67      	ldr	r2, [pc, #412]	; (8000d84 <HAL_RCC_OscConfig+0x26c>)
 8000be6:	f423 2380 	bic.w	r3, r3, #262144	; 0x40000
 8000bea:	6013      	str	r3, [r2, #0]


      /* Check the HSE State */
      if (RCC_OscInitStruct->HSEState != RCC_HSE_OFF)
 8000bec:	687b      	ldr	r3, [r7, #4]
 8000bee:	685b      	ldr	r3, [r3, #4]
 8000bf0:	2b00      	cmp	r3, #0
 8000bf2:	d013      	beq.n	8000c1c <HAL_RCC_OscConfig+0x104>
      {
        /* Get Start Tick */
        tickstart = HAL_GetTick();
 8000bf4:	f7ff fcca 	bl	800058c <HAL_GetTick>
 8000bf8:	6138      	str	r0, [r7, #16]

        /* Wait till HSE is ready */
        while (__HAL_RCC_GET_FLAG(RCC_FLAG_HSERDY) == RESET)
 8000bfa:	e008      	b.n	8000c0e <HAL_RCC_OscConfig+0xf6>
        {
          if ((HAL_GetTick() - tickstart) > HSE_TIMEOUT_VALUE)
 8000bfc:	f7ff fcc6 	bl	800058c <HAL_GetTick>
 8000c00:	4602      	mov	r2, r0
 8000c02:	693b      	ldr	r3, [r7, #16]
 8000c04:	1ad3      	subs	r3, r2, r3
 8000c06:	2b64      	cmp	r3, #100	; 0x64
 8000c08:	d901      	bls.n	8000c0e <HAL_RCC_OscConfig+0xf6>
          {
            return HAL_TIMEOUT;
 8000c0a:	2303      	movs	r3, #3
 8000c0c:	e200      	b.n	8001010 <HAL_RCC_OscConfig+0x4f8>
        while (__HAL_RCC_GET_FLAG(RCC_FLAG_HSERDY) == RESET)
 8000c0e:	4b5d      	ldr	r3, [pc, #372]	; (8000d84 <HAL_RCC_OscConfig+0x26c>)
 8000c10:	681b      	ldr	r3, [r3, #0]
 8000c12:	f403 3300 	and.w	r3, r3, #131072	; 0x20000
 8000c16:	2b00      	cmp	r3, #0
 8000c18:	d0f0      	beq.n	8000bfc <HAL_RCC_OscConfig+0xe4>
 8000c1a:	e014      	b.n	8000c46 <HAL_RCC_OscConfig+0x12e>
        }
      }
      else
      {
        /* Get Start Tick */
        tickstart = HAL_GetTick();
 8000c1c:	f7ff fcb6 	bl	800058c <HAL_GetTick>
 8000c20:	6138      	str	r0, [r7, #16]

        /* Wait till HSE is disabled */
        while (__HAL_RCC_GET_FLAG(RCC_FLAG_HSERDY) != RESET)
 8000c22:	e008      	b.n	8000c36 <HAL_RCC_OscConfig+0x11e>
        {
          if ((HAL_GetTick() - tickstart) > HSE_TIMEOUT_VALUE)
 8000c24:	f7ff fcb2 	bl	800058c <HAL_GetTick>
 8000c28:	4602      	mov	r2, r0
 8000c2a:	693b      	ldr	r3, [r7, #16]
 8000c2c:	1ad3      	subs	r3, r2, r3
 8000c2e:	2b64      	cmp	r3, #100	; 0x64
 8000c30:	d901      	bls.n	8000c36 <HAL_RCC_OscConfig+0x11e>
          {
            return HAL_TIMEOUT;
 8000c32:	2303      	movs	r3, #3
 8000c34:	e1ec      	b.n	8001010 <HAL_RCC_OscConfig+0x4f8>
        while (__HAL_RCC_GET_FLAG(RCC_FLAG_HSERDY) != RESET)
 8000c36:	4b53      	ldr	r3, [pc, #332]	; (8000d84 <HAL_RCC_OscConfig+0x26c>)
 8000c38:	681b      	ldr	r3, [r3, #0]
 8000c3a:	f403 3300 	and.w	r3, r3, #131072	; 0x20000
 8000c3e:	2b00      	cmp	r3, #0
 8000c40:	d1f0      	bne.n	8000c24 <HAL_RCC_OscConfig+0x10c>
 8000c42:	e000      	b.n	8000c46 <HAL_RCC_OscConfig+0x12e>
      if ((__HAL_RCC_GET_FLAG(RCC_FLAG_HSERDY) != RESET) && (RCC_OscInitStruct->HSEState == RCC_HSE_OFF))
 8000c44:	bf00      	nop
        }
      }
    }
  }
  /*----------------------------- HSI Configuration --------------------------*/
  if (((RCC_OscInitStruct->OscillatorType) & RCC_OSCILLATORTYPE_HSI) == RCC_OSCILLATORTYPE_HSI)
 8000c46:	687b      	ldr	r3, [r7, #4]
 8000c48:	681b      	ldr	r3, [r3, #0]
 8000c4a:	f003 0302 	and.w	r3, r3, #2
 8000c4e:	2b00      	cmp	r3, #0
 8000c50:	d063      	beq.n	8000d1a <HAL_RCC_OscConfig+0x202>
    /* Check the parameters */
    assert_param(IS_RCC_HSI(RCC_OscInitStruct->HSIState));
    assert_param(IS_RCC_CALIBRATION_VALUE(RCC_OscInitStruct->HSICalibrationValue));

    /* Check if HSI is used as system clock or as PLL source when PLL is selected as system clock */
    if ((__HAL_RCC_GET_SYSCLK_SOURCE() == RCC_SYSCLKSOURCE_STATUS_HSI)
 8000c52:	4b4c      	ldr	r3, [pc, #304]	; (8000d84 <HAL_RCC_OscConfig+0x26c>)
 8000c54:	685b      	ldr	r3, [r3, #4]
 8000c56:	f003 030c 	and.w	r3, r3, #12
 8000c5a:	2b00      	cmp	r3, #0
 8000c5c:	d00b      	beq.n	8000c76 <HAL_RCC_OscConfig+0x15e>
        || ((__HAL_RCC_GET_SYSCLK_SOURCE() == RCC_SYSCLKSOURCE_STATUS_PLLCLK) && (__HAL_RCC_GET_PLL_OSCSOURCE() == RCC_PLLSOURCE_HSI_DIV2)))
 8000c5e:	4b49      	ldr	r3, [pc, #292]	; (8000d84 <HAL_RCC_OscConfig+0x26c>)
 8000c60:	685b      	ldr	r3, [r3, #4]
 8000c62:	f003 030c 	and.w	r3, r3, #12
 8000c66:	2b08      	cmp	r3, #8
 8000c68:	d11c      	bne.n	8000ca4 <HAL_RCC_OscConfig+0x18c>
 8000c6a:	4b46      	ldr	r3, [pc, #280]	; (8000d84 <HAL_RCC_OscConfig+0x26c>)
 8000c6c:	685b      	ldr	r3, [r3, #4]
 8000c6e:	f403 3380 	and.w	r3, r3, #65536	; 0x10000
 8000c72:	2b00      	cmp	r3, #0
 8000c74:	d116      	bne.n	8000ca4 <HAL_RCC_OscConfig+0x18c>
    {
      /* When HSI is used as system clock it will not disabled */
      if ((__HAL_RCC_GET_FLAG(RCC_FLAG_HSIRDY) != RESET) && (RCC_OscInitStruct->HSIState != RCC_HSI_ON))
 8000c76:	4b43      	ldr	r3, [pc, #268]	; (8000d84 <HAL_RCC_OscConfig+0x26c>)
 8000c78:	681b      	ldr	r3, [r3, #0]
 8000c7a:	f003 0302 	and.w	r3, r3, #2
 8000c7e:	2b00      	cmp	r3, #0
 8000c80:	d005      	beq.n	8000c8e <HAL_RCC_OscConfig+0x176>
 8000c82:	687b      	ldr	r3, [r7, #4]
 8000c84:	691b      	ldr	r3, [r3, #16]
 8000c86:	2b01      	cmp	r3, #1
 8000c88:	d001      	beq.n	8000c8e <HAL_RCC_OscConfig+0x176>
      {
        return HAL_ERROR;
 8000c8a:	2301      	movs	r3, #1
 8000c8c:	e1c0      	b.n	8001010 <HAL_RCC_OscConfig+0x4f8>
      }
      /* Otherwise, just the calibration is allowed */
      else
      {
        /* Adjusts the Internal High Speed oscillator (HSI) calibration value.*/
        __HAL_RCC_HSI_CALIBRATIONVALUE_ADJUST(RCC_OscInitStruct->HSICalibrationValue);
 8000c8e:	4b3d      	ldr	r3, [pc, #244]	; (8000d84 <HAL_RCC_OscConfig+0x26c>)
 8000c90:	681b      	ldr	r3, [r3, #0]
 8000c92:	f023 02f8 	bic.w	r2, r3, #248	; 0xf8
 8000c96:	687b      	ldr	r3, [r7, #4]
 8000c98:	695b      	ldr	r3, [r3, #20]
 8000c9a:	00db      	lsls	r3, r3, #3
 8000c9c:	4939      	ldr	r1, [pc, #228]	; (8000d84 <HAL_RCC_OscConfig+0x26c>)
 8000c9e:	4313      	orrs	r3, r2
 8000ca0:	600b      	str	r3, [r1, #0]
      if ((__HAL_RCC_GET_FLAG(RCC_FLAG_HSIRDY) != RESET) && (RCC_OscInitStruct->HSIState != RCC_HSI_ON))
 8000ca2:	e03a      	b.n	8000d1a <HAL_RCC_OscConfig+0x202>
      }
    }
    else
    {
      /* Check the HSI State */
      if (RCC_OscInitStruct->HSIState != RCC_HSI_OFF)
 8000ca4:	687b      	ldr	r3, [r7, #4]
 8000ca6:	691b      	ldr	r3, [r3, #16]
 8000ca8:	2b00      	cmp	r3, #0
 8000caa:	d020      	beq.n	8000cee <HAL_RCC_OscConfig+0x1d6>
      {
        /* Enable the Internal High Speed oscillator (HSI). */
        __HAL_RCC_HSI_ENABLE();
 8000cac:	4b36      	ldr	r3, [pc, #216]	; (8000d88 <HAL_RCC_OscConfig+0x270>)
 8000cae:	2201      	movs	r2, #1
 8000cb0:	601a      	str	r2, [r3, #0]

        /* Get Start Tick */
        tickstart = HAL_GetTick();
 8000cb2:	f7ff fc6b 	bl	800058c <HAL_GetTick>
 8000cb6:	6138      	str	r0, [r7, #16]

        /* Wait till HSI is ready */
        while (__HAL_RCC_GET_FLAG(RCC_FLAG_HSIRDY) == RESET)
 8000cb8:	e008      	b.n	8000ccc <HAL_RCC_OscConfig+0x1b4>
        {
          if ((HAL_GetTick() - tickstart) > HSI_TIMEOUT_VALUE)
 8000cba:	f7ff fc67 	bl	800058c <HAL_GetTick>
 8000cbe:	4602      	mov	r2, r0
 8000cc0:	693b      	ldr	r3, [r7, #16]
 8000cc2:	1ad3      	subs	r3, r2, r3
 8000cc4:	2b02      	cmp	r3, #2
 8000cc6:	d901      	bls.n	8000ccc <HAL_RCC_OscConfig+0x1b4>
          {
            return HAL_TIMEOUT;
 8000cc8:	2303      	movs	r3, #3
 8000cca:	e1a1      	b.n	8001010 <HAL_RCC_OscConfig+0x4f8>
        while (__HAL_RCC_GET_FLAG(RCC_FLAG_HSIRDY) == RESET)
 8000ccc:	4b2d      	ldr	r3, [pc, #180]	; (8000d84 <HAL_RCC_OscConfig+0x26c>)
 8000cce:	681b      	ldr	r3, [r3, #0]
 8000cd0:	f003 0302 	and.w	r3, r3, #2
 8000cd4:	2b00      	cmp	r3, #0
 8000cd6:	d0f0      	beq.n	8000cba <HAL_RCC_OscConfig+0x1a2>
          }
        }

        /* Adjusts the Internal High Speed oscillator (HSI) calibration value.*/
        __HAL_RCC_HSI_CALIBRATIONVALUE_ADJUST(RCC_OscInitStruct->HSICalibrationValue);
 8000cd8:	4b2a      	ldr	r3, [pc, #168]	; (8000d84 <HAL_RCC_OscConfig+0x26c>)
 8000cda:	681b      	ldr	r3, [r3, #0]
 8000cdc:	f023 02f8 	bic.w	r2, r3, #248	; 0xf8
 8000ce0:	687b      	ldr	r3, [r7, #4]
 8000ce2:	695b      	ldr	r3, [r3, #20]
 8000ce4:	00db      	lsls	r3, r3, #3
 8000ce6:	4927      	ldr	r1, [pc, #156]	; (8000d84 <HAL_RCC_OscConfig+0x26c>)
 8000ce8:	4313      	orrs	r3, r2
 8000cea:	600b      	str	r3, [r1, #0]
 8000cec:	e015      	b.n	8000d1a <HAL_RCC_OscConfig+0x202>
      }
      else
      {
        /* Disable the Internal High Speed oscillator (HSI). */
        __HAL_RCC_HSI_DISABLE();
 8000cee:	4b26      	ldr	r3, [pc, #152]	; (8000d88 <HAL_RCC_OscConfig+0x270>)
 8000cf0:	2200      	movs	r2, #0
 8000cf2:	601a      	str	r2, [r3, #0]

        /* Get Start Tick */
        tickstart = HAL_GetTick();
 8000cf4:	f7ff fc4a 	bl	800058c <HAL_GetTick>
 8000cf8:	6138      	str	r0, [r7, #16]

        /* Wait till HSI is disabled */
        while (__HAL_RCC_GET_FLAG(RCC_FLAG_HSIRDY) != RESET)
 8000cfa:	e008      	b.n	8000d0e <HAL_RCC_OscConfig+0x1f6>
        {
          if ((HAL_GetTick() - tickstart) > HSI_TIMEOUT_VALUE)
 8000cfc:	f7ff fc46 	bl	800058c <HAL_GetTick>
 8000d00:	4602      	mov	r2, r0
 8000d02:	693b      	ldr	r3, [r7, #16]
 8000d04:	1ad3      	subs	r3, r2, r3
 8000d06:	2b02      	cmp	r3, #2
 8000d08:	d901      	bls.n	8000d0e <HAL_RCC_OscConfig+0x1f6>
          {
            return HAL_TIMEOUT;
 8000d0a:	2303      	movs	r3, #3
 8000d0c:	e180      	b.n	8001010 <HAL_RCC_OscConfig+0x4f8>
        while (__HAL_RCC_GET_FLAG(RCC_FLAG_HSIRDY) != RESET)
 8000d0e:	4b1d      	ldr	r3, [pc, #116]	; (8000d84 <HAL_RCC_OscConfig+0x26c>)
 8000d10:	681b      	ldr	r3, [r3, #0]
 8000d12:	f003 0302 	and.w	r3, r3, #2
 8000d16:	2b00      	cmp	r3, #0
 8000d18:	d1f0      	bne.n	8000cfc <HAL_RCC_OscConfig+0x1e4>
        }
      }
    }
  }
  /*------------------------------ LSI Configuration -------------------------*/
  if (((RCC_OscInitStruct->OscillatorType) & RCC_OSCILLATORTYPE_LSI) == RCC_OSCILLATORTYPE_LSI)
 8000d1a:	687b      	ldr	r3, [r7, #4]
 8000d1c:	681b      	ldr	r3, [r3, #0]
 8000d1e:	f003 0308 	and.w	r3, r3, #8
 8000d22:	2b00      	cmp	r3, #0
 8000d24:	d03a      	beq.n	8000d9c <HAL_RCC_OscConfig+0x284>
  {
    /* Check the parameters */
    assert_param(IS_RCC_LSI(RCC_OscInitStruct->LSIState));

    /* Check the LSI State */
    if (RCC_OscInitStruct->LSIState != RCC_LSI_OFF)
 8000d26:	687b      	ldr	r3, [r7, #4]
 8000d28:	699b      	ldr	r3, [r3, #24]
 8000d2a:	2b00      	cmp	r3, #0
 8000d2c:	d019      	beq.n	8000d62 <HAL_RCC_OscConfig+0x24a>
    {
      /* Enable the Internal Low Speed oscillator (LSI). */
      __HAL_RCC_LSI_ENABLE();
 8000d2e:	4b17      	ldr	r3, [pc, #92]	; (8000d8c <HAL_RCC_OscConfig+0x274>)
 8000d30:	2201      	movs	r2, #1
 8000d32:	601a      	str	r2, [r3, #0]

      /* Get Start Tick */
      tickstart = HAL_GetTick();
 8000d34:	f7ff fc2a 	bl	800058c <HAL_GetTick>
 8000d38:	6138      	str	r0, [r7, #16]

      /* Wait till LSI is ready */
      while (__HAL_RCC_GET_FLAG(RCC_FLAG_LSIRDY) == RESET)
 8000d3a:	e008      	b.n	8000d4e <HAL_RCC_OscConfig+0x236>
      {
        if ((HAL_GetTick() - tickstart) > LSI_TIMEOUT_VALUE)
 8000d3c:	f7ff fc26 	bl	800058c <HAL_GetTick>
 8000d40:	4602      	mov	r2, r0
 8000d42:	693b      	ldr	r3, [r7, #16]
 8000d44:	1ad3      	subs	r3, r2, r3
 8000d46:	2b02      	cmp	r3, #2
 8000d48:	d901      	bls.n	8000d4e <HAL_RCC_OscConfig+0x236>
        {
          return HAL_TIMEOUT;
 8000d4a:	2303      	movs	r3, #3
 8000d4c:	e160      	b.n	8001010 <HAL_RCC_OscConfig+0x4f8>
      while (__HAL_RCC_GET_FLAG(RCC_FLAG_LSIRDY) == RESET)
 8000d4e:	4b0d      	ldr	r3, [pc, #52]	; (8000d84 <HAL_RCC_OscConfig+0x26c>)
 8000d50:	6a5b      	ldr	r3, [r3, #36]	; 0x24
 8000d52:	f003 0302 	and.w	r3, r3, #2
 8000d56:	2b00      	cmp	r3, #0
 8000d58:	d0f0      	beq.n	8000d3c <HAL_RCC_OscConfig+0x224>
        }
      }
      /*  To have a fully stabilized clock in the specified range, a software delay of 1ms
          should be added.*/
      RCC_Delay(1);
 8000d5a:	2001      	movs	r0, #1
 8000d5c:	f000 fa9c 	bl	8001298 <RCC_Delay>
 8000d60:	e01c      	b.n	8000d9c <HAL_RCC_OscConfig+0x284>
    }
    else
    {
      /* Disable the Internal Low Speed oscillator (LSI). */
      __HAL_RCC_LSI_DISABLE();
 8000d62:	4b0a      	ldr	r3, [pc, #40]	; (8000d8c <HAL_RCC_OscConfig+0x274>)
 8000d64:	2200      	movs	r2, #0
 8000d66:	601a      	str	r2, [r3, #0]

      /* Get Start Tick */
      tickstart = HAL_GetTick();
 8000d68:	f7ff fc10 	bl	800058c <HAL_GetTick>
 8000d6c:	6138      	str	r0, [r7, #16]

      /* Wait till LSI is disabled */
      while (__HAL_RCC_GET_FLAG(RCC_FLAG_LSIRDY) != RESET)
 8000d6e:	e00f      	b.n	8000d90 <HAL_RCC_OscConfig+0x278>
      {
        if ((HAL_GetTick() - tickstart) > LSI_TIMEOUT_VALUE)
 8000d70:	f7ff fc0c 	bl	800058c <HAL_GetTick>
 8000d74:	4602      	mov	r2, r0
 8000d76:	693b      	ldr	r3, [r7, #16]
 8000d78:	1ad3      	subs	r3, r2, r3
 8000d7a:	2b02      	cmp	r3, #2
 8000d7c:	d908      	bls.n	8000d90 <HAL_RCC_OscConfig+0x278>
        {
          return HAL_TIMEOUT;
 8000d7e:	2303      	movs	r3, #3
 8000d80:	e146      	b.n	8001010 <HAL_RCC_OscConfig+0x4f8>
 8000d82:	bf00      	nop
 8000d84:	40021000 	.word	0x40021000
 8000d88:	42420000 	.word	0x42420000
 8000d8c:	42420480 	.word	0x42420480
      while (__HAL_RCC_GET_FLAG(RCC_FLAG_LSIRDY) != RESET)
 8000d90:	4b92      	ldr	r3, [pc, #584]	; (8000fdc <HAL_RCC_OscConfig+0x4c4>)
 8000d92:	6a5b      	ldr	r3, [r3, #36]	; 0x24
 8000d94:	f003 0302 	and.w	r3, r3, #2
 8000d98:	2b00      	cmp	r3, #0
 8000d9a:	d1e9      	bne.n	8000d70 <HAL_RCC_OscConfig+0x258>
        }
      }
    }
  }
  /*------------------------------ LSE Configuration -------------------------*/
  if (((RCC_OscInitStruct->OscillatorType) & RCC_OSCILLATORTYPE_LSE) == RCC_OSCILLATORTYPE_LSE)
 8000d9c:	687b      	ldr	r3, [r7, #4]
 8000d9e:	681b      	ldr	r3, [r3, #0]
 8000da0:	f003 0304 	and.w	r3, r3, #4
 8000da4:	2b00      	cmp	r3, #0
 8000da6:	f000 80a6 	beq.w	8000ef6 <HAL_RCC_OscConfig+0x3de>
  {
    FlagStatus       pwrclkchanged = RESET;
 8000daa:	2300      	movs	r3, #0
 8000dac:	75fb      	strb	r3, [r7, #23]
    /* Check the parameters */
    assert_param(IS_RCC_LSE(RCC_OscInitStruct->LSEState));

    /* Update LSE configuration in Backup Domain control register    */
    /* Requires to enable write access to Backup Domain of necessary */
    if (__HAL_RCC_PWR_IS_CLK_DISABLED())
 8000dae:	4b8b      	ldr	r3, [pc, #556]	; (8000fdc <HAL_RCC_OscConfig+0x4c4>)
 8000db0:	69db      	ldr	r3, [r3, #28]
 8000db2:	f003 5380 	and.w	r3, r3, #268435456	; 0x10000000
 8000db6:	2b00      	cmp	r3, #0
 8000db8:	d10d      	bne.n	8000dd6 <HAL_RCC_OscConfig+0x2be>
    {
      __HAL_RCC_PWR_CLK_ENABLE();
 8000dba:	4b88      	ldr	r3, [pc, #544]	; (8000fdc <HAL_RCC_OscConfig+0x4c4>)
 8000dbc:	69db      	ldr	r3, [r3, #28]
 8000dbe:	4a87      	ldr	r2, [pc, #540]	; (8000fdc <HAL_RCC_OscConfig+0x4c4>)
 8000dc0:	f043 5380 	orr.w	r3, r3, #268435456	; 0x10000000
 8000dc4:	61d3      	str	r3, [r2, #28]
 8000dc6:	4b85      	ldr	r3, [pc, #532]	; (8000fdc <HAL_RCC_OscConfig+0x4c4>)
 8000dc8:	69db      	ldr	r3, [r3, #28]
 8000dca:	f003 5380 	and.w	r3, r3, #268435456	; 0x10000000
 8000dce:	60bb      	str	r3, [r7, #8]
 8000dd0:	68bb      	ldr	r3, [r7, #8]
      pwrclkchanged = SET;
 8000dd2:	2301      	movs	r3, #1
 8000dd4:	75fb      	strb	r3, [r7, #23]
    }

    if (HAL_IS_BIT_CLR(PWR->CR, PWR_CR_DBP))
 8000dd6:	4b82      	ldr	r3, [pc, #520]	; (8000fe0 <HAL_RCC_OscConfig+0x4c8>)
 8000dd8:	681b      	ldr	r3, [r3, #0]
 8000dda:	f403 7380 	and.w	r3, r3, #256	; 0x100
 8000dde:	2b00      	cmp	r3, #0
 8000de0:	d118      	bne.n	8000e14 <HAL_RCC_OscConfig+0x2fc>
    {
      /* Enable write access to Backup domain */
      SET_BIT(PWR->CR, PWR_CR_DBP);
 8000de2:	4b7f      	ldr	r3, [pc, #508]	; (8000fe0 <HAL_RCC_OscConfig+0x4c8>)
 8000de4:	681b      	ldr	r3, [r3, #0]
 8000de6:	4a7e      	ldr	r2, [pc, #504]	; (8000fe0 <HAL_RCC_OscConfig+0x4c8>)
 8000de8:	f443 7380 	orr.w	r3, r3, #256	; 0x100
 8000dec:	6013      	str	r3, [r2, #0]

      /* Wait for Backup domain Write protection disable */
      tickstart = HAL_GetTick();
 8000dee:	f7ff fbcd 	bl	800058c <HAL_GetTick>
 8000df2:	6138      	str	r0, [r7, #16]

      while (HAL_IS_BIT_CLR(PWR->CR, PWR_CR_DBP))
 8000df4:	e008      	b.n	8000e08 <HAL_RCC_OscConfig+0x2f0>
      {
        if ((HAL_GetTick() - tickstart) > RCC_DBP_TIMEOUT_VALUE)
 8000df6:	f7ff fbc9 	bl	800058c <HAL_GetTick>
 8000dfa:	4602      	mov	r2, r0
 8000dfc:	693b      	ldr	r3, [r7, #16]
 8000dfe:	1ad3      	subs	r3, r2, r3
 8000e00:	2b64      	cmp	r3, #100	; 0x64
 8000e02:	d901      	bls.n	8000e08 <HAL_RCC_OscConfig+0x2f0>
        {
          return HAL_TIMEOUT;
 8000e04:	2303      	movs	r3, #3
 8000e06:	e103      	b.n	8001010 <HAL_RCC_OscConfig+0x4f8>
      while (HAL_IS_BIT_CLR(PWR->CR, PWR_CR_DBP))
 8000e08:	4b75      	ldr	r3, [pc, #468]	; (8000fe0 <HAL_RCC_OscConfig+0x4c8>)
 8000e0a:	681b      	ldr	r3, [r3, #0]
 8000e0c:	f403 7380 	and.w	r3, r3, #256	; 0x100
 8000e10:	2b00      	cmp	r3, #0
 8000e12:	d0f0      	beq.n	8000df6 <HAL_RCC_OscConfig+0x2de>
        }
      }
    }

    /* Set the new LSE configuration -----------------------------------------*/
    __HAL_RCC_LSE_CONFIG(RCC_OscInitStruct->LSEState);
 8000e14:	687b      	ldr	r3, [r7, #4]
 8000e16:	68db      	ldr	r3, [r3, #12]
 8000e18:	2b01      	cmp	r3, #1
 8000e1a:	d106      	bne.n	8000e2a <HAL_RCC_OscConfig+0x312>
 8000e1c:	4b6f      	ldr	r3, [pc, #444]	; (8000fdc <HAL_RCC_OscConfig+0x4c4>)
 8000e1e:	6a1b      	ldr	r3, [r3, #32]
 8000e20:	4a6e      	ldr	r2, [pc, #440]	; (8000fdc <HAL_RCC_OscConfig+0x4c4>)
 8000e22:	f043 0301 	orr.w	r3, r3, #1
 8000e26:	6213      	str	r3, [r2, #32]
 8000e28:	e02d      	b.n	8000e86 <HAL_RCC_OscConfig+0x36e>
 8000e2a:	687b      	ldr	r3, [r7, #4]
 8000e2c:	68db      	ldr	r3, [r3, #12]
 8000e2e:	2b00      	cmp	r3, #0
 8000e30:	d10c      	bne.n	8000e4c <HAL_RCC_OscConfig+0x334>
 8000e32:	4b6a      	ldr	r3, [pc, #424]	; (8000fdc <HAL_RCC_OscConfig+0x4c4>)
 8000e34:	6a1b      	ldr	r3, [r3, #32]
 8000e36:	4a69      	ldr	r2, [pc, #420]	; (8000fdc <HAL_RCC_OscConfig+0x4c4>)
 8000e38:	f023 0301 	bic.w	r3, r3, #1
 8000e3c:	6213      	str	r3, [r2, #32]
 8000e3e:	4b67      	ldr	r3, [pc, #412]	; (8000fdc <HAL_RCC_OscConfig+0x4c4>)
 8000e40:	6a1b      	ldr	r3, [r3, #32]
 8000e42:	4a66      	ldr	r2, [pc, #408]	; (8000fdc <HAL_RCC_OscConfig+0x4c4>)
 8000e44:	f023 0304 	bic.w	r3, r3, #4
 8000e48:	6213      	str	r3, [r2, #32]
 8000e4a:	e01c      	b.n	8000e86 <HAL_RCC_OscConfig+0x36e>
 8000e4c:	687b      	ldr	r3, [r7, #4]
 8000e4e:	68db      	ldr	r3, [r3, #12]
 8000e50:	2b05      	cmp	r3, #5
 8000e52:	d10c      	bne.n	8000e6e <HAL_RCC_OscConfig+0x356>
 8000e54:	4b61      	ldr	r3, [pc, #388]	; (8000fdc <HAL_RCC_OscConfig+0x4c4>)
 8000e56:	6a1b      	ldr	r3, [r3, #32]
 8000e58:	4a60      	ldr	r2, [pc, #384]	; (8000fdc <HAL_RCC_OscConfig+0x4c4>)
 8000e5a:	f043 0304 	orr.w	r3, r3, #4
 8000e5e:	6213      	str	r3, [r2, #32]
 8000e60:	4b5e      	ldr	r3, [pc, #376]	; (8000fdc <HAL_RCC_OscConfig+0x4c4>)
 8000e62:	6a1b      	ldr	r3, [r3, #32]
 8000e64:	4a5d      	ldr	r2, [pc, #372]	; (8000fdc <HAL_RCC_OscConfig+0x4c4>)
 8000e66:	f043 0301 	orr.w	r3, r3, #1
 8000e6a:	6213      	str	r3, [r2, #32]
 8000e6c:	e00b      	b.n	8000e86 <HAL_RCC_OscConfig+0x36e>
 8000e6e:	4b5b      	ldr	r3, [pc, #364]	; (8000fdc <HAL_RCC_OscConfig+0x4c4>)
 8000e70:	6a1b      	ldr	r3, [r3, #32]
 8000e72:	4a5a      	ldr	r2, [pc, #360]	; (8000fdc <HAL_RCC_OscConfig+0x4c4>)
 8000e74:	f023 0301 	bic.w	r3, r3, #1
 8000e78:	6213      	str	r3, [r2, #32]
 8000e7a:	4b58      	ldr	r3, [pc, #352]	; (8000fdc <HAL_RCC_OscConfig+0x4c4>)
 8000e7c:	6a1b      	ldr	r3, [r3, #32]
 8000e7e:	4a57      	ldr	r2, [pc, #348]	; (8000fdc <HAL_RCC_OscConfig+0x4c4>)
 8000e80:	f023 0304 	bic.w	r3, r3, #4
 8000e84:	6213      	str	r3, [r2, #32]
    /* Check the LSE State */
    if (RCC_OscInitStruct->LSEState != RCC_LSE_OFF)
 8000e86:	687b      	ldr	r3, [r7, #4]
 8000e88:	68db      	ldr	r3, [r3, #12]
 8000e8a:	2b00      	cmp	r3, #0
 8000e8c:	d015      	beq.n	8000eba <HAL_RCC_OscConfig+0x3a2>
    {
      /* Get Start Tick */
      tickstart = HAL_GetTick();
 8000e8e:	f7ff fb7d 	bl	800058c <HAL_GetTick>
 8000e92:	6138      	str	r0, [r7, #16]

      /* Wait till LSE is ready */
      while (__HAL_RCC_GET_FLAG(RCC_FLAG_LSERDY) == RESET)
 8000e94:	e00a      	b.n	8000eac <HAL_RCC_OscConfig+0x394>
      {
        if ((HAL_GetTick() - tickstart) > RCC_LSE_TIMEOUT_VALUE)
 8000e96:	f7ff fb79 	bl	800058c <HAL_GetTick>
 8000e9a:	4602      	mov	r2, r0
 8000e9c:	693b      	ldr	r3, [r7, #16]
 8000e9e:	1ad3      	subs	r3, r2, r3
 8000ea0:	f241 3288 	movw	r2, #5000	; 0x1388
 8000ea4:	4293      	cmp	r3, r2
 8000ea6:	d901      	bls.n	8000eac <HAL_RCC_OscConfig+0x394>
        {
          return HAL_TIMEOUT;
 8000ea8:	2303      	movs	r3, #3
 8000eaa:	e0b1      	b.n	8001010 <HAL_RCC_OscConfig+0x4f8>
      while (__HAL_RCC_GET_FLAG(RCC_FLAG_LSERDY) == RESET)
 8000eac:	4b4b      	ldr	r3, [pc, #300]	; (8000fdc <HAL_RCC_OscConfig+0x4c4>)
 8000eae:	6a1b      	ldr	r3, [r3, #32]
 8000eb0:	f003 0302 	and.w	r3, r3, #2
 8000eb4:	2b00      	cmp	r3, #0
 8000eb6:	d0ee      	beq.n	8000e96 <HAL_RCC_OscConfig+0x37e>
 8000eb8:	e014      	b.n	8000ee4 <HAL_RCC_OscConfig+0x3cc>
      }
    }
    else
    {
      /* Get Start Tick */
      tickstart = HAL_GetTick();
 8000eba:	f7ff fb67 	bl	800058c <HAL_GetTick>
 8000ebe:	6138      	str	r0, [r7, #16]

      /* Wait till LSE is disabled */
      while (__HAL_RCC_GET_FLAG(RCC_FLAG_LSERDY) != RESET)
 8000ec0:	e00a      	b.n	8000ed8 <HAL_RCC_OscConfig+0x3c0>
      {
        if ((HAL_GetTick() - tickstart) > RCC_LSE_TIMEOUT_VALUE)
 8000ec2:	f7ff fb63 	bl	800058c <HAL_GetTick>
 8000ec6:	4602      	mov	r2, r0
 8000ec8:	693b      	ldr	r3, [r7, #16]
 8000eca:	1ad3      	subs	r3, r2, r3
 8000ecc:	f241 3288 	movw	r2, #5000	; 0x1388
 8000ed0:	4293      	cmp	r3, r2
 8000ed2:	d901      	bls.n	8000ed8 <HAL_RCC_OscConfig+0x3c0>
        {
          return HAL_TIMEOUT;
 8000ed4:	2303      	movs	r3, #3
 8000ed6:	e09b      	b.n	8001010 <HAL_RCC_OscConfig+0x4f8>
      while (__HAL_RCC_GET_FLAG(RCC_FLAG_LSERDY) != RESET)
 8000ed8:	4b40      	ldr	r3, [pc, #256]	; (8000fdc <HAL_RCC_OscConfig+0x4c4>)
 8000eda:	6a1b      	ldr	r3, [r3, #32]
 8000edc:	f003 0302 	and.w	r3, r3, #2
 8000ee0:	2b00      	cmp	r3, #0
 8000ee2:	d1ee      	bne.n	8000ec2 <HAL_RCC_OscConfig+0x3aa>
        }
      }
    }

    /* Require to disable power clock if necessary */
    if (pwrclkchanged == SET)
 8000ee4:	7dfb      	ldrb	r3, [r7, #23]
 8000ee6:	2b01      	cmp	r3, #1
 8000ee8:	d105      	bne.n	8000ef6 <HAL_RCC_OscConfig+0x3de>
    {
      __HAL_RCC_PWR_CLK_DISABLE();
 8000eea:	4b3c      	ldr	r3, [pc, #240]	; (8000fdc <HAL_RCC_OscConfig+0x4c4>)
 8000eec:	69db      	ldr	r3, [r3, #28]
 8000eee:	4a3b      	ldr	r2, [pc, #236]	; (8000fdc <HAL_RCC_OscConfig+0x4c4>)
 8000ef0:	f023 5380 	bic.w	r3, r3, #268435456	; 0x10000000
 8000ef4:	61d3      	str	r3, [r2, #28]

#endif /* RCC_CR_PLL2ON */
  /*-------------------------------- PLL Configuration -----------------------*/
  /* Check the parameters */
  assert_param(IS_RCC_PLL(RCC_OscInitStruct->PLL.PLLState));
  if ((RCC_OscInitStruct->PLL.PLLState) != RCC_PLL_NONE)
 8000ef6:	687b      	ldr	r3, [r7, #4]
 8000ef8:	69db      	ldr	r3, [r3, #28]
 8000efa:	2b00      	cmp	r3, #0
 8000efc:	f000 8087 	beq.w	800100e <HAL_RCC_OscConfig+0x4f6>
  {
    /* Check if the PLL is used as system clock or not */
    if (__HAL_RCC_GET_SYSCLK_SOURCE() != RCC_SYSCLKSOURCE_STATUS_PLLCLK)
 8000f00:	4b36      	ldr	r3, [pc, #216]	; (8000fdc <HAL_RCC_OscConfig+0x4c4>)
 8000f02:	685b      	ldr	r3, [r3, #4]
 8000f04:	f003 030c 	and.w	r3, r3, #12
 8000f08:	2b08      	cmp	r3, #8
 8000f0a:	d061      	beq.n	8000fd0 <HAL_RCC_OscConfig+0x4b8>
    {
      if ((RCC_OscInitStruct->PLL.PLLState) == RCC_PLL_ON)
 8000f0c:	687b      	ldr	r3, [r7, #4]
 8000f0e:	69db      	ldr	r3, [r3, #28]
 8000f10:	2b02      	cmp	r3, #2
 8000f12:	d146      	bne.n	8000fa2 <HAL_RCC_OscConfig+0x48a>
        /* Check the parameters */
        assert_param(IS_RCC_PLLSOURCE(RCC_OscInitStruct->PLL.PLLSource));
        assert_param(IS_RCC_PLL_MUL(RCC_OscInitStruct->PLL.PLLMUL));

        /* Disable the main PLL. */
        __HAL_RCC_PLL_DISABLE();
 8000f14:	4b33      	ldr	r3, [pc, #204]	; (8000fe4 <HAL_RCC_OscConfig+0x4cc>)
 8000f16:	2200      	movs	r2, #0
 8000f18:	601a      	str	r2, [r3, #0]

        /* Get Start Tick */
        tickstart = HAL_GetTick();
 8000f1a:	f7ff fb37 	bl	800058c <HAL_GetTick>
 8000f1e:	6138      	str	r0, [r7, #16]

        /* Wait till PLL is disabled */
        while (__HAL_RCC_GET_FLAG(RCC_FLAG_PLLRDY)  != RESET)
 8000f20:	e008      	b.n	8000f34 <HAL_RCC_OscConfig+0x41c>
        {
          if ((HAL_GetTick() - tickstart) > PLL_TIMEOUT_VALUE)
 8000f22:	f7ff fb33 	bl	800058c <HAL_GetTick>
 8000f26:	4602      	mov	r2, r0
 8000f28:	693b      	ldr	r3, [r7, #16]
 8000f2a:	1ad3      	subs	r3, r2, r3
 8000f2c:	2b02      	cmp	r3, #2
 8000f2e:	d901      	bls.n	8000f34 <HAL_RCC_OscConfig+0x41c>
          {
            return HAL_TIMEOUT;
 8000f30:	2303      	movs	r3, #3
 8000f32:	e06d      	b.n	8001010 <HAL_RCC_OscConfig+0x4f8>
        while (__HAL_RCC_GET_FLAG(RCC_FLAG_PLLRDY)  != RESET)
 8000f34:	4b29      	ldr	r3, [pc, #164]	; (8000fdc <HAL_RCC_OscConfig+0x4c4>)
 8000f36:	681b      	ldr	r3, [r3, #0]
 8000f38:	f003 7300 	and.w	r3, r3, #33554432	; 0x2000000
 8000f3c:	2b00      	cmp	r3, #0
 8000f3e:	d1f0      	bne.n	8000f22 <HAL_RCC_OscConfig+0x40a>
          }
        }

        /* Configure the HSE prediv factor --------------------------------*/
        /* It can be written only when the PLL is disabled. Not used in PLL source is different than HSE */
        if (RCC_OscInitStruct->PLL.PLLSource == RCC_PLLSOURCE_HSE)
 8000f40:	687b      	ldr	r3, [r7, #4]
 8000f42:	6a1b      	ldr	r3, [r3, #32]
 8000f44:	f5b3 3f80 	cmp.w	r3, #65536	; 0x10000
 8000f48:	d108      	bne.n	8000f5c <HAL_RCC_OscConfig+0x444>
          /* Set PREDIV1 source */
          SET_BIT(RCC->CFGR2, RCC_OscInitStruct->Prediv1Source);
#endif /* RCC_CFGR2_PREDIV1SRC */

          /* Set PREDIV1 Value */
          __HAL_RCC_HSE_PREDIV_CONFIG(RCC_OscInitStruct->HSEPredivValue);
 8000f4a:	4b24      	ldr	r3, [pc, #144]	; (8000fdc <HAL_RCC_OscConfig+0x4c4>)
 8000f4c:	685b      	ldr	r3, [r3, #4]
 8000f4e:	f423 3200 	bic.w	r2, r3, #131072	; 0x20000
 8000f52:	687b      	ldr	r3, [r7, #4]
 8000f54:	689b      	ldr	r3, [r3, #8]
 8000f56:	4921      	ldr	r1, [pc, #132]	; (8000fdc <HAL_RCC_OscConfig+0x4c4>)
 8000f58:	4313      	orrs	r3, r2
 8000f5a:	604b      	str	r3, [r1, #4]
        }

        /* Configure the main PLL clock source and multiplication factors. */
        __HAL_RCC_PLL_CONFIG(RCC_OscInitStruct->PLL.PLLSource,
 8000f5c:	4b1f      	ldr	r3, [pc, #124]	; (8000fdc <HAL_RCC_OscConfig+0x4c4>)
 8000f5e:	685b      	ldr	r3, [r3, #4]
 8000f60:	f423 1274 	bic.w	r2, r3, #3997696	; 0x3d0000
 8000f64:	687b      	ldr	r3, [r7, #4]
 8000f66:	6a19      	ldr	r1, [r3, #32]
 8000f68:	687b      	ldr	r3, [r7, #4]
 8000f6a:	6a5b      	ldr	r3, [r3, #36]	; 0x24
 8000f6c:	430b      	orrs	r3, r1
 8000f6e:	491b      	ldr	r1, [pc, #108]	; (8000fdc <HAL_RCC_OscConfig+0x4c4>)
 8000f70:	4313      	orrs	r3, r2
 8000f72:	604b      	str	r3, [r1, #4]
                             RCC_OscInitStruct->PLL.PLLMUL);
        /* Enable the main PLL. */
        __HAL_RCC_PLL_ENABLE();
 8000f74:	4b1b      	ldr	r3, [pc, #108]	; (8000fe4 <HAL_RCC_OscConfig+0x4cc>)
 8000f76:	2201      	movs	r2, #1
 8000f78:	601a      	str	r2, [r3, #0]

        /* Get Start Tick */
        tickstart = HAL_GetTick();
 8000f7a:	f7ff fb07 	bl	800058c <HAL_GetTick>
 8000f7e:	6138      	str	r0, [r7, #16]

        /* Wait till PLL is ready */
        while (__HAL_RCC_GET_FLAG(RCC_FLAG_PLLRDY)  == RESET)
 8000f80:	e008      	b.n	8000f94 <HAL_RCC_OscConfig+0x47c>
        {
          if ((HAL_GetTick() - tickstart) > PLL_TIMEOUT_VALUE)
 8000f82:	f7ff fb03 	bl	800058c <HAL_GetTick>
 8000f86:	4602      	mov	r2, r0
 8000f88:	693b      	ldr	r3, [r7, #16]
 8000f8a:	1ad3      	subs	r3, r2, r3
 8000f8c:	2b02      	cmp	r3, #2
 8000f8e:	d901      	bls.n	8000f94 <HAL_RCC_OscConfig+0x47c>
          {
            return HAL_TIMEOUT;
 8000f90:	2303      	movs	r3, #3
 8000f92:	e03d      	b.n	8001010 <HAL_RCC_OscConfig+0x4f8>
        while (__HAL_RCC_GET_FLAG(RCC_FLAG_PLLRDY)  == RESET)
 8000f94:	4b11      	ldr	r3, [pc, #68]	; (8000fdc <HAL_RCC_OscConfig+0x4c4>)
 8000f96:	681b      	ldr	r3, [r3, #0]
 8000f98:	f003 7300 	and.w	r3, r3, #33554432	; 0x2000000
 8000f9c:	2b00      	cmp	r3, #0
 8000f9e:	d0f0      	beq.n	8000f82 <HAL_RCC_OscConfig+0x46a>
 8000fa0:	e035      	b.n	800100e <HAL_RCC_OscConfig+0x4f6>
        }
      }
      else
      {
        /* Disable the main PLL. */
        __HAL_RCC_PLL_DISABLE();
 8000fa2:	4b10      	ldr	r3, [pc, #64]	; (8000fe4 <HAL_RCC_OscConfig+0x4cc>)
 8000fa4:	2200      	movs	r2, #0
 8000fa6:	601a      	str	r2, [r3, #0]

        /* Get Start Tick */
        tickstart = HAL_GetTick();
 8000fa8:	f7ff faf0 	bl	800058c <HAL_GetTick>
 8000fac:	6138      	str	r0, [r7, #16]

        /* Wait till PLL is disabled */
        while (__HAL_RCC_GET_FLAG(RCC_FLAG_PLLRDY)  != RESET)
 8000fae:	e008      	b.n	8000fc2 <HAL_RCC_OscConfig+0x4aa>
        {
          if ((HAL_GetTick() - tickstart) > PLL_TIMEOUT_VALUE)
 8000fb0:	f7ff faec 	bl	800058c <HAL_GetTick>
 8000fb4:	4602      	mov	r2, r0
 8000fb6:	693b      	ldr	r3, [r7, #16]
 8000fb8:	1ad3      	subs	r3, r2, r3
 8000fba:	2b02      	cmp	r3, #2
 8000fbc:	d901      	bls.n	8000fc2 <HAL_RCC_OscConfig+0x4aa>
          {
            return HAL_TIMEOUT;
 8000fbe:	2303      	movs	r3, #3
 8000fc0:	e026      	b.n	8001010 <HAL_RCC_OscConfig+0x4f8>
        while (__HAL_RCC_GET_FLAG(RCC_FLAG_PLLRDY)  != RESET)
 8000fc2:	4b06      	ldr	r3, [pc, #24]	; (8000fdc <HAL_RCC_OscConfig+0x4c4>)
 8000fc4:	681b      	ldr	r3, [r3, #0]
 8000fc6:	f003 7300 	and.w	r3, r3, #33554432	; 0x2000000
 8000fca:	2b00      	cmp	r3, #0
 8000fcc:	d1f0      	bne.n	8000fb0 <HAL_RCC_OscConfig+0x498>
 8000fce:	e01e      	b.n	800100e <HAL_RCC_OscConfig+0x4f6>
      }
    }
    else
    {
      /* Check if there is a request to disable the PLL used as System clock source */
      if ((RCC_OscInitStruct->PLL.PLLState) == RCC_PLL_OFF)
 8000fd0:	687b      	ldr	r3, [r7, #4]
 8000fd2:	69db      	ldr	r3, [r3, #28]
 8000fd4:	2b01      	cmp	r3, #1
 8000fd6:	d107      	bne.n	8000fe8 <HAL_RCC_OscConfig+0x4d0>
      {
        return HAL_ERROR;
 8000fd8:	2301      	movs	r3, #1
 8000fda:	e019      	b.n	8001010 <HAL_RCC_OscConfig+0x4f8>
 8000fdc:	40021000 	.word	0x40021000
 8000fe0:	40007000 	.word	0x40007000
 8000fe4:	42420060 	.word	0x42420060
      }
      else
      {
        /* Do not return HAL_ERROR if request repeats the current configuration */
        pll_config = RCC->CFGR;
 8000fe8:	4b0b      	ldr	r3, [pc, #44]	; (8001018 <HAL_RCC_OscConfig+0x500>)
 8000fea:	685b      	ldr	r3, [r3, #4]
 8000fec:	60fb      	str	r3, [r7, #12]
        if ((READ_BIT(pll_config, RCC_CFGR_PLLSRC) != RCC_OscInitStruct->PLL.PLLSource) ||
 8000fee:	68fb      	ldr	r3, [r7, #12]
 8000ff0:	f403 3280 	and.w	r2, r3, #65536	; 0x10000
 8000ff4:	687b      	ldr	r3, [r7, #4]
 8000ff6:	6a1b      	ldr	r3, [r3, #32]
 8000ff8:	429a      	cmp	r2, r3
 8000ffa:	d106      	bne.n	800100a <HAL_RCC_OscConfig+0x4f2>
            (READ_BIT(pll_config, RCC_CFGR_PLLMULL) != RCC_OscInitStruct->PLL.PLLMUL))
 8000ffc:	68fb      	ldr	r3, [r7, #12]
 8000ffe:	f403 1270 	and.w	r2, r3, #3932160	; 0x3c0000
 8001002:	687b      	ldr	r3, [r7, #4]
 8001004:	6a5b      	ldr	r3, [r3, #36]	; 0x24
        if ((READ_BIT(pll_config, RCC_CFGR_PLLSRC) != RCC_OscInitStruct->PLL.PLLSource) ||
 8001006:	429a      	cmp	r2, r3
 8001008:	d001      	beq.n	800100e <HAL_RCC_OscConfig+0x4f6>
        {
          return HAL_ERROR;
 800100a:	2301      	movs	r3, #1
 800100c:	e000      	b.n	8001010 <HAL_RCC_OscConfig+0x4f8>
        }
      }
    }
  }

  return HAL_OK;
 800100e:	2300      	movs	r3, #0
}
 8001010:	4618      	mov	r0, r3
 8001012:	3718      	adds	r7, #24
 8001014:	46bd      	mov	sp, r7
 8001016:	bd80      	pop	{r7, pc}
 8001018:	40021000 	.word	0x40021000

0800101c <HAL_RCC_ClockConfig>:
  *         You can use @ref HAL_RCC_GetClockConfig() function to know which clock is
  *         currently used as system clock source.
  * @retval HAL status
  */
HAL_StatusTypeDef HAL_RCC_ClockConfig(RCC_ClkInitTypeDef  *RCC_ClkInitStruct, uint32_t FLatency)
{
 800101c:	b580      	push	{r7, lr}
 800101e:	b084      	sub	sp, #16
 8001020:	af00      	add	r7, sp, #0
 8001022:	6078      	str	r0, [r7, #4]
 8001024:	6039      	str	r1, [r7, #0]
  uint32_t tickstart;

  /* Check Null pointer */
  if (RCC_ClkInitStruct == NULL)
 8001026:	687b      	ldr	r3, [r7, #4]
 8001028:	2b00      	cmp	r3, #0
 800102a:	d101      	bne.n	8001030 <HAL_RCC_ClockConfig+0x14>
  {
    return HAL_ERROR;
 800102c:	2301      	movs	r3, #1
 800102e:	e0d0      	b.n	80011d2 <HAL_RCC_ClockConfig+0x1b6>
  must be correctly programmed according to the frequency of the CPU clock
    (HCLK) of the device. */

#if defined(FLASH_ACR_LATENCY)
  /* Increasing the number of wait states because of higher CPU frequency */
  if (FLatency > __HAL_FLASH_GET_LATENCY())
 8001030:	4b6a      	ldr	r3, [pc, #424]	; (80011dc <HAL_RCC_ClockConfig+0x1c0>)
 8001032:	681b      	ldr	r3, [r3, #0]
 8001034:	f003 0307 	and.w	r3, r3, #7
 8001038:	683a      	ldr	r2, [r7, #0]
 800103a:	429a      	cmp	r2, r3
 800103c:	d910      	bls.n	8001060 <HAL_RCC_ClockConfig+0x44>
  {
    /* Program the new number of wait states to the LATENCY bits in the FLASH_ACR register */
    __HAL_FLASH_SET_LATENCY(FLatency);
 800103e:	4b67      	ldr	r3, [pc, #412]	; (80011dc <HAL_RCC_ClockConfig+0x1c0>)
 8001040:	681b      	ldr	r3, [r3, #0]
 8001042:	f023 0207 	bic.w	r2, r3, #7
 8001046:	4965      	ldr	r1, [pc, #404]	; (80011dc <HAL_RCC_ClockConfig+0x1c0>)
 8001048:	683b      	ldr	r3, [r7, #0]
 800104a:	4313      	orrs	r3, r2
 800104c:	600b      	str	r3, [r1, #0]

    /* Check that the new number of wait states is taken into account to access the Flash
    memory by reading the FLASH_ACR register */
    if (__HAL_FLASH_GET_LATENCY() != FLatency)
 800104e:	4b63      	ldr	r3, [pc, #396]	; (80011dc <HAL_RCC_ClockConfig+0x1c0>)
 8001050:	681b      	ldr	r3, [r3, #0]
 8001052:	f003 0307 	and.w	r3, r3, #7
 8001056:	683a      	ldr	r2, [r7, #0]
 8001058:	429a      	cmp	r2, r3
 800105a:	d001      	beq.n	8001060 <HAL_RCC_ClockConfig+0x44>
  {
    return HAL_ERROR;
 800105c:	2301      	movs	r3, #1
 800105e:	e0b8      	b.n	80011d2 <HAL_RCC_ClockConfig+0x1b6>
  }
}

#endif /* FLASH_ACR_LATENCY */
/*-------------------------- HCLK Configuration --------------------------*/
if (((RCC_ClkInitStruct->ClockType) & RCC_CLOCKTYPE_HCLK) == RCC_CLOCKTYPE_HCLK)
 8001060:	687b      	ldr	r3, [r7, #4]
 8001062:	681b      	ldr	r3, [r3, #0]
 8001064:	f003 0302 	and.w	r3, r3, #2
 8001068:	2b00      	cmp	r3, #0
 800106a:	d020      	beq.n	80010ae <HAL_RCC_ClockConfig+0x92>
  {
    /* Set the highest APBx dividers in order to ensure that we do not go through
    a non-spec phase whatever we decrease or increase HCLK. */
    if (((RCC_ClkInitStruct->ClockType) & RCC_CLOCKTYPE_PCLK1) == RCC_CLOCKTYPE_PCLK1)
 800106c:	687b      	ldr	r3, [r7, #4]
 800106e:	681b      	ldr	r3, [r3, #0]
 8001070:	f003 0304 	and.w	r3, r3, #4
 8001074:	2b00      	cmp	r3, #0
 8001076:	d005      	beq.n	8001084 <HAL_RCC_ClockConfig+0x68>
    {
      MODIFY_REG(RCC->CFGR, RCC_CFGR_PPRE1, RCC_HCLK_DIV16);
 8001078:	4b59      	ldr	r3, [pc, #356]	; (80011e0 <HAL_RCC_ClockConfig+0x1c4>)
 800107a:	685b      	ldr	r3, [r3, #4]
 800107c:	4a58      	ldr	r2, [pc, #352]	; (80011e0 <HAL_RCC_ClockConfig+0x1c4>)
 800107e:	f443 63e0 	orr.w	r3, r3, #1792	; 0x700
 8001082:	6053      	str	r3, [r2, #4]
    }

    if (((RCC_ClkInitStruct->ClockType) & RCC_CLOCKTYPE_PCLK2) == RCC_CLOCKTYPE_PCLK2)
 8001084:	687b      	ldr	r3, [r7, #4]
 8001086:	681b      	ldr	r3, [r3, #0]
 8001088:	f003 0308 	and.w	r3, r3, #8
 800108c:	2b00      	cmp	r3, #0
 800108e:	d005      	beq.n	800109c <HAL_RCC_ClockConfig+0x80>
    {
      MODIFY_REG(RCC->CFGR, RCC_CFGR_PPRE2, (RCC_HCLK_DIV16 << 3));
 8001090:	4b53      	ldr	r3, [pc, #332]	; (80011e0 <HAL_RCC_ClockConfig+0x1c4>)
 8001092:	685b      	ldr	r3, [r3, #4]
 8001094:	4a52      	ldr	r2, [pc, #328]	; (80011e0 <HAL_RCC_ClockConfig+0x1c4>)
 8001096:	f443 5360 	orr.w	r3, r3, #14336	; 0x3800
 800109a:	6053      	str	r3, [r2, #4]
    }

    /* Set the new HCLK clock divider */
    assert_param(IS_RCC_HCLK(RCC_ClkInitStruct->AHBCLKDivider));
    MODIFY_REG(RCC->CFGR, RCC_CFGR_HPRE, RCC_ClkInitStruct->AHBCLKDivider);
 800109c:	4b50      	ldr	r3, [pc, #320]	; (80011e0 <HAL_RCC_ClockConfig+0x1c4>)
 800109e:	685b      	ldr	r3, [r3, #4]
 80010a0:	f023 02f0 	bic.w	r2, r3, #240	; 0xf0
 80010a4:	687b      	ldr	r3, [r7, #4]
 80010a6:	689b      	ldr	r3, [r3, #8]
 80010a8:	494d      	ldr	r1, [pc, #308]	; (80011e0 <HAL_RCC_ClockConfig+0x1c4>)
 80010aa:	4313      	orrs	r3, r2
 80010ac:	604b      	str	r3, [r1, #4]
  }

  /*------------------------- SYSCLK Configuration ---------------------------*/
  if (((RCC_ClkInitStruct->ClockType) & RCC_CLOCKTYPE_SYSCLK) == RCC_CLOCKTYPE_SYSCLK)
 80010ae:	687b      	ldr	r3, [r7, #4]
 80010b0:	681b      	ldr	r3, [r3, #0]
 80010b2:	f003 0301 	and.w	r3, r3, #1
 80010b6:	2b00      	cmp	r3, #0
 80010b8:	d040      	beq.n	800113c <HAL_RCC_ClockConfig+0x120>
  {
    assert_param(IS_RCC_SYSCLKSOURCE(RCC_ClkInitStruct->SYSCLKSource));

    /* HSE is selected as System Clock Source */
    if (RCC_ClkInitStruct->SYSCLKSource == RCC_SYSCLKSOURCE_HSE)
 80010ba:	687b      	ldr	r3, [r7, #4]
 80010bc:	685b      	ldr	r3, [r3, #4]
 80010be:	2b01      	cmp	r3, #1
 80010c0:	d107      	bne.n	80010d2 <HAL_RCC_ClockConfig+0xb6>
    {
      /* Check the HSE ready flag */
      if (__HAL_RCC_GET_FLAG(RCC_FLAG_HSERDY) == RESET)
 80010c2:	4b47      	ldr	r3, [pc, #284]	; (80011e0 <HAL_RCC_ClockConfig+0x1c4>)
 80010c4:	681b      	ldr	r3, [r3, #0]
 80010c6:	f403 3300 	and.w	r3, r3, #131072	; 0x20000
 80010ca:	2b00      	cmp	r3, #0
 80010cc:	d115      	bne.n	80010fa <HAL_RCC_ClockConfig+0xde>
      {
        return HAL_ERROR;
 80010ce:	2301      	movs	r3, #1
 80010d0:	e07f      	b.n	80011d2 <HAL_RCC_ClockConfig+0x1b6>
      }
    }
    /* PLL is selected as System Clock Source */
    else if (RCC_ClkInitStruct->SYSCLKSource == RCC_SYSCLKSOURCE_PLLCLK)
 80010d2:	687b      	ldr	r3, [r7, #4]
 80010d4:	685b      	ldr	r3, [r3, #4]
 80010d6:	2b02      	cmp	r3, #2
 80010d8:	d107      	bne.n	80010ea <HAL_RCC_ClockConfig+0xce>
    {
      /* Check the PLL ready flag */
      if (__HAL_RCC_GET_FLAG(RCC_FLAG_PLLRDY) == RESET)
 80010da:	4b41      	ldr	r3, [pc, #260]	; (80011e0 <HAL_RCC_ClockConfig+0x1c4>)
 80010dc:	681b      	ldr	r3, [r3, #0]
 80010de:	f003 7300 	and.w	r3, r3, #33554432	; 0x2000000
 80010e2:	2b00      	cmp	r3, #0
 80010e4:	d109      	bne.n	80010fa <HAL_RCC_ClockConfig+0xde>
      {
        return HAL_ERROR;
 80010e6:	2301      	movs	r3, #1
 80010e8:	e073      	b.n	80011d2 <HAL_RCC_ClockConfig+0x1b6>
    }
    /* HSI is selected as System Clock Source */
    else
    {
      /* Check the HSI ready flag */
      if (__HAL_RCC_GET_FLAG(RCC_FLAG_HSIRDY) == RESET)
 80010ea:	4b3d      	ldr	r3, [pc, #244]	; (80011e0 <HAL_RCC_ClockConfig+0x1c4>)
 80010ec:	681b      	ldr	r3, [r3, #0]
 80010ee:	f003 0302 	and.w	r3, r3, #2
 80010f2:	2b00      	cmp	r3, #0
 80010f4:	d101      	bne.n	80010fa <HAL_RCC_ClockConfig+0xde>
      {
        return HAL_ERROR;
 80010f6:	2301      	movs	r3, #1
 80010f8:	e06b      	b.n	80011d2 <HAL_RCC_ClockConfig+0x1b6>
      }
    }
    __HAL_RCC_SYSCLK_CONFIG(RCC_ClkInitStruct->SYSCLKSource);
 80010fa:	4b39      	ldr	r3, [pc, #228]	; (80011e0 <HAL_RCC_ClockConfig+0x1c4>)
 80010fc:	685b      	ldr	r3, [r3, #4]
 80010fe:	f023 0203 	bic.w	r2, r3, #3
 8001102:	687b      	ldr	r3, [r7, #4]
 8001104:	685b      	ldr	r3, [r3, #4]
 8001106:	4936      	ldr	r1, [pc, #216]	; (80011e0 <HAL_RCC_ClockConfig+0x1c4>)
 8001108:	4313      	orrs	r3, r2
 800110a:	604b      	str	r3, [r1, #4]

    /* Get Start Tick */
    tickstart = HAL_GetTick();
 800110c:	f7ff fa3e 	bl	800058c <HAL_GetTick>
 8001110:	60f8      	str	r0, [r7, #12]

    while (__HAL_RCC_GET_SYSCLK_SOURCE() != (RCC_ClkInitStruct->SYSCLKSource << RCC_CFGR_SWS_Pos))
 8001112:	e00a      	b.n	800112a <HAL_RCC_ClockConfig+0x10e>
    {
      if ((HAL_GetTick() - tickstart) > CLOCKSWITCH_TIMEOUT_VALUE)
 8001114:	f7ff fa3a 	bl	800058c <HAL_GetTick>
 8001118:	4602      	mov	r2, r0
 800111a:	68fb      	ldr	r3, [r7, #12]
 800111c:	1ad3      	subs	r3, r2, r3
 800111e:	f241 3288 	movw	r2, #5000	; 0x1388
 8001122:	4293      	cmp	r3, r2
 8001124:	d901      	bls.n	800112a <HAL_RCC_ClockConfig+0x10e>
      {
        return HAL_TIMEOUT;
 8001126:	2303      	movs	r3, #3
 8001128:	e053      	b.n	80011d2 <HAL_RCC_ClockConfig+0x1b6>
    while (__HAL_RCC_GET_SYSCLK_SOURCE() != (RCC_ClkInitStruct->SYSCLKSource << RCC_CFGR_SWS_Pos))
 800112a:	4b2d      	ldr	r3, [pc, #180]	; (80011e0 <HAL_RCC_ClockConfig+0x1c4>)
 800112c:	685b      	ldr	r3, [r3, #4]
 800112e:	f003 020c 	and.w	r2, r3, #12
 8001132:	687b      	ldr	r3, [r7, #4]
 8001134:	685b      	ldr	r3, [r3, #4]
 8001136:	009b      	lsls	r3, r3, #2
 8001138:	429a      	cmp	r2, r3
 800113a:	d1eb      	bne.n	8001114 <HAL_RCC_ClockConfig+0xf8>
    }
  }

#if defined(FLASH_ACR_LATENCY)
  /* Decreasing the number of wait states because of lower CPU frequency */
  if (FLatency < __HAL_FLASH_GET_LATENCY())
 800113c:	4b27      	ldr	r3, [pc, #156]	; (80011dc <HAL_RCC_ClockConfig+0x1c0>)
 800113e:	681b      	ldr	r3, [r3, #0]
 8001140:	f003 0307 	and.w	r3, r3, #7
 8001144:	683a      	ldr	r2, [r7, #0]
 8001146:	429a      	cmp	r2, r3
 8001148:	d210      	bcs.n	800116c <HAL_RCC_ClockConfig+0x150>
  {
    /* Program the new number of wait states to the LATENCY bits in the FLASH_ACR register */
    __HAL_FLASH_SET_LATENCY(FLatency);
 800114a:	4b24      	ldr	r3, [pc, #144]	; (80011dc <HAL_RCC_ClockConfig+0x1c0>)
 800114c:	681b      	ldr	r3, [r3, #0]
 800114e:	f023 0207 	bic.w	r2, r3, #7
 8001152:	4922      	ldr	r1, [pc, #136]	; (80011dc <HAL_RCC_ClockConfig+0x1c0>)
 8001154:	683b      	ldr	r3, [r7, #0]
 8001156:	4313      	orrs	r3, r2
 8001158:	600b      	str	r3, [r1, #0]

    /* Check that the new number of wait states is taken into account to access the Flash
    memory by reading the FLASH_ACR register */
    if (__HAL_FLASH_GET_LATENCY() != FLatency)
 800115a:	4b20      	ldr	r3, [pc, #128]	; (80011dc <HAL_RCC_ClockConfig+0x1c0>)
 800115c:	681b      	ldr	r3, [r3, #0]
 800115e:	f003 0307 	and.w	r3, r3, #7
 8001162:	683a      	ldr	r2, [r7, #0]
 8001164:	429a      	cmp	r2, r3
 8001166:	d001      	beq.n	800116c <HAL_RCC_ClockConfig+0x150>
  {
    return HAL_ERROR;
 8001168:	2301      	movs	r3, #1
 800116a:	e032      	b.n	80011d2 <HAL_RCC_ClockConfig+0x1b6>
  }
}
#endif /* FLASH_ACR_LATENCY */

/*-------------------------- PCLK1 Configuration ---------------------------*/
if (((RCC_ClkInitStruct->ClockType) & RCC_CLOCKTYPE_PCLK1) == RCC_CLOCKTYPE_PCLK1)
 800116c:	687b      	ldr	r3, [r7, #4]
 800116e:	681b      	ldr	r3, [r3, #0]
 8001170:	f003 0304 	and.w	r3, r3, #4
 8001174:	2b00      	cmp	r3, #0
 8001176:	d008      	beq.n	800118a <HAL_RCC_ClockConfig+0x16e>
  {
    assert_param(IS_RCC_PCLK(RCC_ClkInitStruct->APB1CLKDivider));
    MODIFY_REG(RCC->CFGR, RCC_CFGR_PPRE1, RCC_ClkInitStruct->APB1CLKDivider);
 8001178:	4b19      	ldr	r3, [pc, #100]	; (80011e0 <HAL_RCC_ClockConfig+0x1c4>)
 800117a:	685b      	ldr	r3, [r3, #4]
 800117c:	f423 62e0 	bic.w	r2, r3, #1792	; 0x700
 8001180:	687b      	ldr	r3, [r7, #4]
 8001182:	68db      	ldr	r3, [r3, #12]
 8001184:	4916      	ldr	r1, [pc, #88]	; (80011e0 <HAL_RCC_ClockConfig+0x1c4>)
 8001186:	4313      	orrs	r3, r2
 8001188:	604b      	str	r3, [r1, #4]
  }

  /*-------------------------- PCLK2 Configuration ---------------------------*/
  if (((RCC_ClkInitStruct->ClockType) & RCC_CLOCKTYPE_PCLK2) == RCC_CLOCKTYPE_PCLK2)
 800118a:	687b      	ldr	r3, [r7, #4]
 800118c:	681b      	ldr	r3, [r3, #0]
 800118e:	f003 0308 	and.w	r3, r3, #8
 8001192:	2b00      	cmp	r3, #0
 8001194:	d009      	beq.n	80011aa <HAL_RCC_ClockConfig+0x18e>
  {
    assert_param(IS_RCC_PCLK(RCC_ClkInitStruct->APB2CLKDivider));
    MODIFY_REG(RCC->CFGR, RCC_CFGR_PPRE2, ((RCC_ClkInitStruct->APB2CLKDivider) << 3));
 8001196:	4b12      	ldr	r3, [pc, #72]	; (80011e0 <HAL_RCC_ClockConfig+0x1c4>)
 8001198:	685b      	ldr	r3, [r3, #4]
 800119a:	f423 5260 	bic.w	r2, r3, #14336	; 0x3800
 800119e:	687b      	ldr	r3, [r7, #4]
 80011a0:	691b      	ldr	r3, [r3, #16]
 80011a2:	00db      	lsls	r3, r3, #3
 80011a4:	490e      	ldr	r1, [pc, #56]	; (80011e0 <HAL_RCC_ClockConfig+0x1c4>)
 80011a6:	4313      	orrs	r3, r2
 80011a8:	604b      	str	r3, [r1, #4]
  }

  /* Update the SystemCoreClock global variable */
  SystemCoreClock = HAL_RCC_GetSysClockFreq() >> AHBPrescTable[(RCC->CFGR & RCC_CFGR_HPRE) >> RCC_CFGR_HPRE_Pos];
 80011aa:	f000 f821 	bl	80011f0 <HAL_RCC_GetSysClockFreq>
 80011ae:	4602      	mov	r2, r0
 80011b0:	4b0b      	ldr	r3, [pc, #44]	; (80011e0 <HAL_RCC_ClockConfig+0x1c4>)
 80011b2:	685b      	ldr	r3, [r3, #4]
 80011b4:	091b      	lsrs	r3, r3, #4
 80011b6:	f003 030f 	and.w	r3, r3, #15
 80011ba:	490a      	ldr	r1, [pc, #40]	; (80011e4 <HAL_RCC_ClockConfig+0x1c8>)
 80011bc:	5ccb      	ldrb	r3, [r1, r3]
 80011be:	fa22 f303 	lsr.w	r3, r2, r3
 80011c2:	4a09      	ldr	r2, [pc, #36]	; (80011e8 <HAL_RCC_ClockConfig+0x1cc>)
 80011c4:	6013      	str	r3, [r2, #0]

  /* Configure the source of time base considering new system clocks settings*/
  HAL_InitTick(uwTickPrio);
 80011c6:	4b09      	ldr	r3, [pc, #36]	; (80011ec <HAL_RCC_ClockConfig+0x1d0>)
 80011c8:	681b      	ldr	r3, [r3, #0]
 80011ca:	4618      	mov	r0, r3
 80011cc:	f7ff f99c 	bl	8000508 <HAL_InitTick>

  return HAL_OK;
 80011d0:	2300      	movs	r3, #0
}
 80011d2:	4618      	mov	r0, r3
 80011d4:	3710      	adds	r7, #16
 80011d6:	46bd      	mov	sp, r7
 80011d8:	bd80      	pop	{r7, pc}
 80011da:	bf00      	nop
 80011dc:	40022000 	.word	0x40022000
 80011e0:	40021000 	.word	0x40021000
 80011e4:	08001b14 	.word	0x08001b14
 80011e8:	20000000 	.word	0x20000000
 80011ec:	20000004 	.word	0x20000004

080011f0 <HAL_RCC_GetSysClockFreq>:
  *         right SYSCLK value. Otherwise, any configuration based on this function will be incorrect.
  *
  * @retval SYSCLK frequency
  */
uint32_t HAL_RCC_GetSysClockFreq(void)
{
 80011f0:	b480      	push	{r7}
 80011f2:	b087      	sub	sp, #28
 80011f4:	af00      	add	r7, sp, #0
#else
  static const uint8_t aPredivFactorTable[2U] = {1, 2};
#endif /*RCC_CFGR2_PREDIV1*/

#endif
  uint32_t tmpreg = 0U, prediv = 0U, pllclk = 0U, pllmul = 0U;
 80011f6:	2300      	movs	r3, #0
 80011f8:	60fb      	str	r3, [r7, #12]
 80011fa:	2300      	movs	r3, #0
 80011fc:	60bb      	str	r3, [r7, #8]
 80011fe:	2300      	movs	r3, #0
 8001200:	617b      	str	r3, [r7, #20]
 8001202:	2300      	movs	r3, #0
 8001204:	607b      	str	r3, [r7, #4]
  uint32_t sysclockfreq = 0U;
 8001206:	2300      	movs	r3, #0
 8001208:	613b      	str	r3, [r7, #16]
#if defined(RCC_CFGR2_PREDIV1SRC)
  uint32_t prediv2 = 0U, pll2mul = 0U;
#endif /*RCC_CFGR2_PREDIV1SRC*/

  tmpreg = RCC->CFGR;
 800120a:	4b1e      	ldr	r3, [pc, #120]	; (8001284 <HAL_RCC_GetSysClockFreq+0x94>)
 800120c:	685b      	ldr	r3, [r3, #4]
 800120e:	60fb      	str	r3, [r7, #12]

  /* Get SYSCLK source -------------------------------------------------------*/
  switch (tmpreg & RCC_CFGR_SWS)
 8001210:	68fb      	ldr	r3, [r7, #12]
 8001212:	f003 030c 	and.w	r3, r3, #12
 8001216:	2b04      	cmp	r3, #4
 8001218:	d002      	beq.n	8001220 <HAL_RCC_GetSysClockFreq+0x30>
 800121a:	2b08      	cmp	r3, #8
 800121c:	d003      	beq.n	8001226 <HAL_RCC_GetSysClockFreq+0x36>
 800121e:	e027      	b.n	8001270 <HAL_RCC_GetSysClockFreq+0x80>
  {
    case RCC_SYSCLKSOURCE_STATUS_HSE:  /* HSE used as system clock */
    {
      sysclockfreq = HSE_VALUE;
 8001220:	4b19      	ldr	r3, [pc, #100]	; (8001288 <HAL_RCC_GetSysClockFreq+0x98>)
 8001222:	613b      	str	r3, [r7, #16]
      break;
 8001224:	e027      	b.n	8001276 <HAL_RCC_GetSysClockFreq+0x86>
    }
    case RCC_SYSCLKSOURCE_STATUS_PLLCLK:  /* PLL used as system clock */
    {
      pllmul = aPLLMULFactorTable[(uint32_t)(tmpreg & RCC_CFGR_PLLMULL) >> RCC_CFGR_PLLMULL_Pos];
 8001226:	68fb      	ldr	r3, [r7, #12]
 8001228:	0c9b      	lsrs	r3, r3, #18
 800122a:	f003 030f 	and.w	r3, r3, #15
 800122e:	4a17      	ldr	r2, [pc, #92]	; (800128c <HAL_RCC_GetSysClockFreq+0x9c>)
 8001230:	5cd3      	ldrb	r3, [r2, r3]
 8001232:	607b      	str	r3, [r7, #4]
      if ((tmpreg & RCC_CFGR_PLLSRC) != RCC_PLLSOURCE_HSI_DIV2)
 8001234:	68fb      	ldr	r3, [r7, #12]
 8001236:	f403 3380 	and.w	r3, r3, #65536	; 0x10000
 800123a:	2b00      	cmp	r3, #0
 800123c:	d010      	beq.n	8001260 <HAL_RCC_GetSysClockFreq+0x70>
      {
#if defined(RCC_CFGR2_PREDIV1)
        prediv = aPredivFactorTable[(uint32_t)(RCC->CFGR2 & RCC_CFGR2_PREDIV1) >> RCC_CFGR2_PREDIV1_Pos];
#else
        prediv = aPredivFactorTable[(uint32_t)(RCC->CFGR & RCC_CFGR_PLLXTPRE) >> RCC_CFGR_PLLXTPRE_Pos];
 800123e:	4b11      	ldr	r3, [pc, #68]	; (8001284 <HAL_RCC_GetSysClockFreq+0x94>)
 8001240:	685b      	ldr	r3, [r3, #4]
 8001242:	0c5b      	lsrs	r3, r3, #17
 8001244:	f003 0301 	and.w	r3, r3, #1
 8001248:	4a11      	ldr	r2, [pc, #68]	; (8001290 <HAL_RCC_GetSysClockFreq+0xa0>)
 800124a:	5cd3      	ldrb	r3, [r2, r3]
 800124c:	60bb      	str	r3, [r7, #8]
        {
          pllclk = pllclk / 2;
        }
#else
        /* HSE used as PLL clock source : PLLCLK = HSE/PREDIV1 * PLLMUL */
        pllclk = (uint32_t)((HSE_VALUE  * pllmul) / prediv);
 800124e:	687b      	ldr	r3, [r7, #4]
 8001250:	4a0d      	ldr	r2, [pc, #52]	; (8001288 <HAL_RCC_GetSysClockFreq+0x98>)
 8001252:	fb03 f202 	mul.w	r2, r3, r2
 8001256:	68bb      	ldr	r3, [r7, #8]
 8001258:	fbb2 f3f3 	udiv	r3, r2, r3
 800125c:	617b      	str	r3, [r7, #20]
 800125e:	e004      	b.n	800126a <HAL_RCC_GetSysClockFreq+0x7a>
#endif /*RCC_CFGR2_PREDIV1SRC*/
      }
      else
      {
        /* HSI used as PLL clock source : PLLCLK = HSI/2 * PLLMUL */
        pllclk = (uint32_t)((HSI_VALUE >> 1) * pllmul);
 8001260:	687b      	ldr	r3, [r7, #4]
 8001262:	4a0c      	ldr	r2, [pc, #48]	; (8001294 <HAL_RCC_GetSysClockFreq+0xa4>)
 8001264:	fb02 f303 	mul.w	r3, r2, r3
 8001268:	617b      	str	r3, [r7, #20]
      }
      sysclockfreq = pllclk;
 800126a:	697b      	ldr	r3, [r7, #20]
 800126c:	613b      	str	r3, [r7, #16]
      break;
 800126e:	e002      	b.n	8001276 <HAL_RCC_GetSysClockFreq+0x86>
    }
    case RCC_SYSCLKSOURCE_STATUS_HSI:  /* HSI used as system clock source */
    default: /* HSI used as system clock */
    {
      sysclockfreq = HSI_VALUE;
 8001270:	4b05      	ldr	r3, [pc, #20]	; (8001288 <HAL_RCC_GetSysClockFreq+0x98>)
 8001272:	613b      	str	r3, [r7, #16]
      break;
 8001274:	bf00      	nop
    }
  }
  return sysclockfreq;
 8001276:	693b      	ldr	r3, [r7, #16]
}
 8001278:	4618      	mov	r0, r3
 800127a:	371c      	adds	r7, #28
 800127c:	46bd      	mov	sp, r7
 800127e:	bc80      	pop	{r7}
 8001280:	4770      	bx	lr
 8001282:	bf00      	nop
 8001284:	40021000 	.word	0x40021000
 8001288:	007a1200 	.word	0x007a1200
 800128c:	08001b24 	.word	0x08001b24
 8001290:	08001b34 	.word	0x08001b34
 8001294:	003d0900 	.word	0x003d0900

08001298 <RCC_Delay>:
  * @brief  This function provides delay (in milliseconds) based on CPU cycles method.
  * @param  mdelay: specifies the delay time length, in milliseconds.
  * @retval None
  */
static void RCC_Delay(uint32_t mdelay)
{
 8001298:	b480      	push	{r7}
 800129a:	b085      	sub	sp, #20
 800129c:	af00      	add	r7, sp, #0
 800129e:	6078      	str	r0, [r7, #4]
  __IO uint32_t Delay = mdelay * (SystemCoreClock / 8U / 1000U);
 80012a0:	4b0a      	ldr	r3, [pc, #40]	; (80012cc <RCC_Delay+0x34>)
 80012a2:	681b      	ldr	r3, [r3, #0]
 80012a4:	4a0a      	ldr	r2, [pc, #40]	; (80012d0 <RCC_Delay+0x38>)
 80012a6:	fba2 2303 	umull	r2, r3, r2, r3
 80012aa:	0a5b      	lsrs	r3, r3, #9
 80012ac:	687a      	ldr	r2, [r7, #4]
 80012ae:	fb02 f303 	mul.w	r3, r2, r3
 80012b2:	60fb      	str	r3, [r7, #12]
  do
  {
    __NOP();
 80012b4:	bf00      	nop
  }
  while (Delay --);
 80012b6:	68fb      	ldr	r3, [r7, #12]
 80012b8:	1e5a      	subs	r2, r3, #1
 80012ba:	60fa      	str	r2, [r7, #12]
 80012bc:	2b00      	cmp	r3, #0
 80012be:	d1f9      	bne.n	80012b4 <RCC_Delay+0x1c>
}
 80012c0:	bf00      	nop
 80012c2:	bf00      	nop
 80012c4:	3714      	adds	r7, #20
 80012c6:	46bd      	mov	sp, r7
 80012c8:	bc80      	pop	{r7}
 80012ca:	4770      	bx	lr
 80012cc:	20000000 	.word	0x20000000
 80012d0:	10624dd3 	.word	0x10624dd3

080012d4 <HAL_TIM_Base_Init>:
  *         Ex: call @ref HAL_TIM_Base_DeInit() before HAL_TIM_Base_Init()
  * @param  htim TIM Base handle
  * @retval HAL status
  */
HAL_StatusTypeDef HAL_TIM_Base_Init(TIM_HandleTypeDef *htim)
{
 80012d4:	b580      	push	{r7, lr}
 80012d6:	b082      	sub	sp, #8
 80012d8:	af00      	add	r7, sp, #0
 80012da:	6078      	str	r0, [r7, #4]
  /* Check the TIM handle allocation */
  if (htim == NULL)
 80012dc:	687b      	ldr	r3, [r7, #4]
 80012de:	2b00      	cmp	r3, #0
 80012e0:	d101      	bne.n	80012e6 <HAL_TIM_Base_Init+0x12>
  {
    return HAL_ERROR;
 80012e2:	2301      	movs	r3, #1
 80012e4:	e041      	b.n	800136a <HAL_TIM_Base_Init+0x96>
  assert_param(IS_TIM_COUNTER_MODE(htim->Init.CounterMode));
  assert_param(IS_TIM_CLOCKDIVISION_DIV(htim->Init.ClockDivision));
  assert_param(IS_TIM_PERIOD(htim->Init.Period));
  assert_param(IS_TIM_AUTORELOAD_PRELOAD(htim->Init.AutoReloadPreload));

  if (htim->State == HAL_TIM_STATE_RESET)
 80012e6:	687b      	ldr	r3, [r7, #4]
 80012e8:	f893 303d 	ldrb.w	r3, [r3, #61]	; 0x3d
 80012ec:	b2db      	uxtb	r3, r3
 80012ee:	2b00      	cmp	r3, #0
 80012f0:	d106      	bne.n	8001300 <HAL_TIM_Base_Init+0x2c>
  {
    /* Allocate lock resource and initialize it */
    htim->Lock = HAL_UNLOCKED;
 80012f2:	687b      	ldr	r3, [r7, #4]
 80012f4:	2200      	movs	r2, #0
 80012f6:	f883 203c 	strb.w	r2, [r3, #60]	; 0x3c
    }
    /* Init the low level hardware : GPIO, CLOCK, NVIC */
    htim->Base_MspInitCallback(htim);
#else
    /* Init the low level hardware : GPIO, CLOCK, NVIC */
    HAL_TIM_Base_MspInit(htim);
 80012fa:	6878      	ldr	r0, [r7, #4]
 80012fc:	f7ff f86c 	bl	80003d8 <HAL_TIM_Base_MspInit>
#endif /* USE_HAL_TIM_REGISTER_CALLBACKS */
  }

  /* Set the TIM state */
  htim->State = HAL_TIM_STATE_BUSY;
 8001300:	687b      	ldr	r3, [r7, #4]
 8001302:	2202      	movs	r2, #2
 8001304:	f883 203d 	strb.w	r2, [r3, #61]	; 0x3d

  /* Set the Time Base configuration */
  TIM_Base_SetConfig(htim->Instance, &htim->Init);
 8001308:	687b      	ldr	r3, [r7, #4]
 800130a:	681a      	ldr	r2, [r3, #0]
 800130c:	687b      	ldr	r3, [r7, #4]
 800130e:	3304      	adds	r3, #4
 8001310:	4619      	mov	r1, r3
 8001312:	4610      	mov	r0, r2
 8001314:	f000 fa6e 	bl	80017f4 <TIM_Base_SetConfig>

  /* Initialize the DMA burst operation state */
  htim->DMABurstState = HAL_DMA_BURST_STATE_READY;
 8001318:	687b      	ldr	r3, [r7, #4]
 800131a:	2201      	movs	r2, #1
 800131c:	f883 2046 	strb.w	r2, [r3, #70]	; 0x46

  /* Initialize the TIM channels state */
  TIM_CHANNEL_STATE_SET_ALL(htim, HAL_TIM_CHANNEL_STATE_READY);
 8001320:	687b      	ldr	r3, [r7, #4]
 8001322:	2201      	movs	r2, #1
 8001324:	f883 203e 	strb.w	r2, [r3, #62]	; 0x3e
 8001328:	687b      	ldr	r3, [r7, #4]
 800132a:	2201      	movs	r2, #1
 800132c:	f883 203f 	strb.w	r2, [r3, #63]	; 0x3f
 8001330:	687b      	ldr	r3, [r7, #4]
 8001332:	2201      	movs	r2, #1
 8001334:	f883 2040 	strb.w	r2, [r3, #64]	; 0x40
 8001338:	687b      	ldr	r3, [r7, #4]
 800133a:	2201      	movs	r2, #1
 800133c:	f883 2041 	strb.w	r2, [r3, #65]	; 0x41
  TIM_CHANNEL_N_STATE_SET_ALL(htim, HAL_TIM_CHANNEL_STATE_READY);
 8001340:	687b      	ldr	r3, [r7, #4]
 8001342:	2201      	movs	r2, #1
 8001344:	f883 2042 	strb.w	r2, [r3, #66]	; 0x42
 8001348:	687b      	ldr	r3, [r7, #4]
 800134a:	2201      	movs	r2, #1
 800134c:	f883 2043 	strb.w	r2, [r3, #67]	; 0x43
 8001350:	687b      	ldr	r3, [r7, #4]
 8001352:	2201      	movs	r2, #1
 8001354:	f883 2044 	strb.w	r2, [r3, #68]	; 0x44
 8001358:	687b      	ldr	r3, [r7, #4]
 800135a:	2201      	movs	r2, #1
 800135c:	f883 2045 	strb.w	r2, [r3, #69]	; 0x45

  /* Initialize the TIM state*/
  htim->State = HAL_TIM_STATE_READY;
 8001360:	687b      	ldr	r3, [r7, #4]
 8001362:	2201      	movs	r2, #1
 8001364:	f883 203d 	strb.w	r2, [r3, #61]	; 0x3d

  return HAL_OK;
 8001368:	2300      	movs	r3, #0
}
 800136a:	4618      	mov	r0, r3
 800136c:	3708      	adds	r7, #8
 800136e:	46bd      	mov	sp, r7
 8001370:	bd80      	pop	{r7, pc}
	...

08001374 <HAL_TIM_Base_Start_IT>:
  * @brief  Starts the TIM Base generation in interrupt mode.
  * @param  htim TIM Base handle
  * @retval HAL status
  */
HAL_StatusTypeDef HAL_TIM_Base_Start_IT(TIM_HandleTypeDef *htim)
{
 8001374:	b480      	push	{r7}
 8001376:	b085      	sub	sp, #20
 8001378:	af00      	add	r7, sp, #0
 800137a:	6078      	str	r0, [r7, #4]

  /* Check the parameters */
  assert_param(IS_TIM_INSTANCE(htim->Instance));

  /* Check the TIM state */
  if (htim->State != HAL_TIM_STATE_READY)
 800137c:	687b      	ldr	r3, [r7, #4]
 800137e:	f893 303d 	ldrb.w	r3, [r3, #61]	; 0x3d
 8001382:	b2db      	uxtb	r3, r3
 8001384:	2b01      	cmp	r3, #1
 8001386:	d001      	beq.n	800138c <HAL_TIM_Base_Start_IT+0x18>
  {
    return HAL_ERROR;
 8001388:	2301      	movs	r3, #1
 800138a:	e035      	b.n	80013f8 <HAL_TIM_Base_Start_IT+0x84>
  }

  /* Set the TIM state */
  htim->State = HAL_TIM_STATE_BUSY;
 800138c:	687b      	ldr	r3, [r7, #4]
 800138e:	2202      	movs	r2, #2
 8001390:	f883 203d 	strb.w	r2, [r3, #61]	; 0x3d

  /* Enable the TIM Update interrupt */
  __HAL_TIM_ENABLE_IT(htim, TIM_IT_UPDATE);
 8001394:	687b      	ldr	r3, [r7, #4]
 8001396:	681b      	ldr	r3, [r3, #0]
 8001398:	68da      	ldr	r2, [r3, #12]
 800139a:	687b      	ldr	r3, [r7, #4]
 800139c:	681b      	ldr	r3, [r3, #0]
 800139e:	f042 0201 	orr.w	r2, r2, #1
 80013a2:	60da      	str	r2, [r3, #12]

  /* Enable the Peripheral, except in trigger mode where enable is automatically done with trigger */
  if (IS_TIM_SLAVE_INSTANCE(htim->Instance))
 80013a4:	687b      	ldr	r3, [r7, #4]
 80013a6:	681b      	ldr	r3, [r3, #0]
 80013a8:	4a16      	ldr	r2, [pc, #88]	; (8001404 <HAL_TIM_Base_Start_IT+0x90>)
 80013aa:	4293      	cmp	r3, r2
 80013ac:	d009      	beq.n	80013c2 <HAL_TIM_Base_Start_IT+0x4e>
 80013ae:	687b      	ldr	r3, [r7, #4]
 80013b0:	681b      	ldr	r3, [r3, #0]
 80013b2:	f1b3 4f80 	cmp.w	r3, #1073741824	; 0x40000000
 80013b6:	d004      	beq.n	80013c2 <HAL_TIM_Base_Start_IT+0x4e>
 80013b8:	687b      	ldr	r3, [r7, #4]
 80013ba:	681b      	ldr	r3, [r3, #0]
 80013bc:	4a12      	ldr	r2, [pc, #72]	; (8001408 <HAL_TIM_Base_Start_IT+0x94>)
 80013be:	4293      	cmp	r3, r2
 80013c0:	d111      	bne.n	80013e6 <HAL_TIM_Base_Start_IT+0x72>
  {
    tmpsmcr = htim->Instance->SMCR & TIM_SMCR_SMS;
 80013c2:	687b      	ldr	r3, [r7, #4]
 80013c4:	681b      	ldr	r3, [r3, #0]
 80013c6:	689b      	ldr	r3, [r3, #8]
 80013c8:	f003 0307 	and.w	r3, r3, #7
 80013cc:	60fb      	str	r3, [r7, #12]
    if (!IS_TIM_SLAVEMODE_TRIGGER_ENABLED(tmpsmcr))
 80013ce:	68fb      	ldr	r3, [r7, #12]
 80013d0:	2b06      	cmp	r3, #6
 80013d2:	d010      	beq.n	80013f6 <HAL_TIM_Base_Start_IT+0x82>
    {
      __HAL_TIM_ENABLE(htim);
 80013d4:	687b      	ldr	r3, [r7, #4]
 80013d6:	681b      	ldr	r3, [r3, #0]
 80013d8:	681a      	ldr	r2, [r3, #0]
 80013da:	687b      	ldr	r3, [r7, #4]
 80013dc:	681b      	ldr	r3, [r3, #0]
 80013de:	f042 0201 	orr.w	r2, r2, #1
 80013e2:	601a      	str	r2, [r3, #0]
    if (!IS_TIM_SLAVEMODE_TRIGGER_ENABLED(tmpsmcr))
 80013e4:	e007      	b.n	80013f6 <HAL_TIM_Base_Start_IT+0x82>
    }
  }
  else
  {
    __HAL_TIM_ENABLE(htim);
 80013e6:	687b      	ldr	r3, [r7, #4]
 80013e8:	681b      	ldr	r3, [r3, #0]
 80013ea:	681a      	ldr	r2, [r3, #0]
 80013ec:	687b      	ldr	r3, [r7, #4]
 80013ee:	681b      	ldr	r3, [r3, #0]
 80013f0:	f042 0201 	orr.w	r2, r2, #1
 80013f4:	601a      	str	r2, [r3, #0]
  }

  /* Return function status */
  return HAL_OK;
 80013f6:	2300      	movs	r3, #0
}
 80013f8:	4618      	mov	r0, r3
 80013fa:	3714      	adds	r7, #20
 80013fc:	46bd      	mov	sp, r7
 80013fe:	bc80      	pop	{r7}
 8001400:	4770      	bx	lr
 8001402:	bf00      	nop
 8001404:	40012c00 	.word	0x40012c00
 8001408:	40000400 	.word	0x40000400

0800140c <HAL_TIM_IRQHandler>:
  * @brief  This function handles TIM interrupts requests.
  * @param  htim TIM  handle
  * @retval None
  */
void HAL_TIM_IRQHandler(TIM_HandleTypeDef *htim)
{
 800140c:	b580      	push	{r7, lr}
 800140e:	b082      	sub	sp, #8
 8001410:	af00      	add	r7, sp, #0
 8001412:	6078      	str	r0, [r7, #4]
  /* Capture compare 1 event */
  if (__HAL_TIM_GET_FLAG(htim, TIM_FLAG_CC1) != RESET)
 8001414:	687b      	ldr	r3, [r7, #4]
 8001416:	681b      	ldr	r3, [r3, #0]
 8001418:	691b      	ldr	r3, [r3, #16]
 800141a:	f003 0302 	and.w	r3, r3, #2
 800141e:	2b02      	cmp	r3, #2
 8001420:	d122      	bne.n	8001468 <HAL_TIM_IRQHandler+0x5c>
  {
    if (__HAL_TIM_GET_IT_SOURCE(htim, TIM_IT_CC1) != RESET)
 8001422:	687b      	ldr	r3, [r7, #4]
 8001424:	681b      	ldr	r3, [r3, #0]
 8001426:	68db      	ldr	r3, [r3, #12]
 8001428:	f003 0302 	and.w	r3, r3, #2
 800142c:	2b02      	cmp	r3, #2
 800142e:	d11b      	bne.n	8001468 <HAL_TIM_IRQHandler+0x5c>
    {
      {
        __HAL_TIM_CLEAR_IT(htim, TIM_IT_CC1);
 8001430:	687b      	ldr	r3, [r7, #4]
 8001432:	681b      	ldr	r3, [r3, #0]
 8001434:	f06f 0202 	mvn.w	r2, #2
 8001438:	611a      	str	r2, [r3, #16]
        htim->Channel = HAL_TIM_ACTIVE_CHANNEL_1;
 800143a:	687b      	ldr	r3, [r7, #4]
 800143c:	2201      	movs	r2, #1
 800143e:	771a      	strb	r2, [r3, #28]

        /* Input capture event */
        if ((htim->Instance->CCMR1 & TIM_CCMR1_CC1S) != 0x00U)
 8001440:	687b      	ldr	r3, [r7, #4]
 8001442:	681b      	ldr	r3, [r3, #0]
 8001444:	699b      	ldr	r3, [r3, #24]
 8001446:	f003 0303 	and.w	r3, r3, #3
 800144a:	2b00      	cmp	r3, #0
 800144c:	d003      	beq.n	8001456 <HAL_TIM_IRQHandler+0x4a>
        {
#if (USE_HAL_TIM_REGISTER_CALLBACKS == 1)
          htim->IC_CaptureCallback(htim);
#else
          HAL_TIM_IC_CaptureCallback(htim);
 800144e:	6878      	ldr	r0, [r7, #4]
 8001450:	f000 f9b4 	bl	80017bc <HAL_TIM_IC_CaptureCallback>
 8001454:	e005      	b.n	8001462 <HAL_TIM_IRQHandler+0x56>
        {
#if (USE_HAL_TIM_REGISTER_CALLBACKS == 1)
          htim->OC_DelayElapsedCallback(htim);
          htim->PWM_PulseFinishedCallback(htim);
#else
          HAL_TIM_OC_DelayElapsedCallback(htim);
 8001456:	6878      	ldr	r0, [r7, #4]
 8001458:	f000 f9a7 	bl	80017aa <HAL_TIM_OC_DelayElapsedCallback>
          HAL_TIM_PWM_PulseFinishedCallback(htim);
 800145c:	6878      	ldr	r0, [r7, #4]
 800145e:	f000 f9b6 	bl	80017ce <HAL_TIM_PWM_PulseFinishedCallback>
#endif /* USE_HAL_TIM_REGISTER_CALLBACKS */
        }
        htim->Channel = HAL_TIM_ACTIVE_CHANNEL_CLEARED;
 8001462:	687b      	ldr	r3, [r7, #4]
 8001464:	2200      	movs	r2, #0
 8001466:	771a      	strb	r2, [r3, #28]
      }
    }
  }
  /* Capture compare 2 event */
  if (__HAL_TIM_GET_FLAG(htim, TIM_FLAG_CC2) != RESET)
 8001468:	687b      	ldr	r3, [r7, #4]
 800146a:	681b      	ldr	r3, [r3, #0]
 800146c:	691b      	ldr	r3, [r3, #16]
 800146e:	f003 0304 	and.w	r3, r3, #4
 8001472:	2b04      	cmp	r3, #4
 8001474:	d122      	bne.n	80014bc <HAL_TIM_IRQHandler+0xb0>
  {
    if (__HAL_TIM_GET_IT_SOURCE(htim, TIM_IT_CC2) != RESET)
 8001476:	687b      	ldr	r3, [r7, #4]
 8001478:	681b      	ldr	r3, [r3, #0]
 800147a:	68db      	ldr	r3, [r3, #12]
 800147c:	f003 0304 	and.w	r3, r3, #4
 8001480:	2b04      	cmp	r3, #4
 8001482:	d11b      	bne.n	80014bc <HAL_TIM_IRQHandler+0xb0>
    {
      __HAL_TIM_CLEAR_IT(htim, TIM_IT_CC2);
 8001484:	687b      	ldr	r3, [r7, #4]
 8001486:	681b      	ldr	r3, [r3, #0]
 8001488:	f06f 0204 	mvn.w	r2, #4
 800148c:	611a      	str	r2, [r3, #16]
      htim->Channel = HAL_TIM_ACTIVE_CHANNEL_2;
 800148e:	687b      	ldr	r3, [r7, #4]
 8001490:	2202      	movs	r2, #2
 8001492:	771a      	strb	r2, [r3, #28]
      /* Input capture event */
      if ((htim->Instance->CCMR1 & TIM_CCMR1_CC2S) != 0x00U)
 8001494:	687b      	ldr	r3, [r7, #4]
 8001496:	681b      	ldr	r3, [r3, #0]
 8001498:	699b      	ldr	r3, [r3, #24]
 800149a:	f403 7340 	and.w	r3, r3, #768	; 0x300
 800149e:	2b00      	cmp	r3, #0
 80014a0:	d003      	beq.n	80014aa <HAL_TIM_IRQHandler+0x9e>
      {
#if (USE_HAL_TIM_REGISTER_CALLBACKS == 1)
        htim->IC_CaptureCallback(htim);
#else
        HAL_TIM_IC_CaptureCallback(htim);
 80014a2:	6878      	ldr	r0, [r7, #4]
 80014a4:	f000 f98a 	bl	80017bc <HAL_TIM_IC_CaptureCallback>
 80014a8:	e005      	b.n	80014b6 <HAL_TIM_IRQHandler+0xaa>
      {
#if (USE_HAL_TIM_REGISTER_CALLBACKS == 1)
        htim->OC_DelayElapsedCallback(htim);
        htim->PWM_PulseFinishedCallback(htim);
#else
        HAL_TIM_OC_DelayElapsedCallback(htim);
 80014aa:	6878      	ldr	r0, [r7, #4]
 80014ac:	f000 f97d 	bl	80017aa <HAL_TIM_OC_DelayElapsedCallback>
        HAL_TIM_PWM_PulseFinishedCallback(htim);
 80014b0:	6878      	ldr	r0, [r7, #4]
 80014b2:	f000 f98c 	bl	80017ce <HAL_TIM_PWM_PulseFinishedCallback>
#endif /* USE_HAL_TIM_REGISTER_CALLBACKS */
      }
      htim->Channel = HAL_TIM_ACTIVE_CHANNEL_CLEARED;
 80014b6:	687b      	ldr	r3, [r7, #4]
 80014b8:	2200      	movs	r2, #0
 80014ba:	771a      	strb	r2, [r3, #28]
    }
  }
  /* Capture compare 3 event */
  if (__HAL_TIM_GET_FLAG(htim, TIM_FLAG_CC3) != RESET)
 80014bc:	687b      	ldr	r3, [r7, #4]
 80014be:	681b      	ldr	r3, [r3, #0]
 80014c0:	691b      	ldr	r3, [r3, #16]
 80014c2:	f003 0308 	and.w	r3, r3, #8
 80014c6:	2b08      	cmp	r3, #8
 80014c8:	d122      	bne.n	8001510 <HAL_TIM_IRQHandler+0x104>
  {
    if (__HAL_TIM_GET_IT_SOURCE(htim, TIM_IT_CC3) != RESET)
 80014ca:	687b      	ldr	r3, [r7, #4]
 80014cc:	681b      	ldr	r3, [r3, #0]
 80014ce:	68db      	ldr	r3, [r3, #12]
 80014d0:	f003 0308 	and.w	r3, r3, #8
 80014d4:	2b08      	cmp	r3, #8
 80014d6:	d11b      	bne.n	8001510 <HAL_TIM_IRQHandler+0x104>
    {
      __HAL_TIM_CLEAR_IT(htim, TIM_IT_CC3);
 80014d8:	687b      	ldr	r3, [r7, #4]
 80014da:	681b      	ldr	r3, [r3, #0]
 80014dc:	f06f 0208 	mvn.w	r2, #8
 80014e0:	611a      	str	r2, [r3, #16]
      htim->Channel = HAL_TIM_ACTIVE_CHANNEL_3;
 80014e2:	687b      	ldr	r3, [r7, #4]
 80014e4:	2204      	movs	r2, #4
 80014e6:	771a      	strb	r2, [r3, #28]
      /* Input capture event */
      if ((htim->Instance->CCMR2 & TIM_CCMR2_CC3S) != 0x00U)
 80014e8:	687b      	ldr	r3, [r7, #4]
 80014ea:	681b      	ldr	r3, [r3, #0]
 80014ec:	69db      	ldr	r3, [r3, #28]
 80014ee:	f003 0303 	and.w	r3, r3, #3
 80014f2:	2b00      	cmp	r3, #0
 80014f4:	d003      	beq.n	80014fe <HAL_TIM_IRQHandler+0xf2>
      {
#if (USE_HAL_TIM_REGISTER_CALLBACKS == 1)
        htim->IC_CaptureCallback(htim);
#else
        HAL_TIM_IC_CaptureCallback(htim);
 80014f6:	6878      	ldr	r0, [r7, #4]
 80014f8:	f000 f960 	bl	80017bc <HAL_TIM_IC_CaptureCallback>
 80014fc:	e005      	b.n	800150a <HAL_TIM_IRQHandler+0xfe>
      {
#if (USE_HAL_TIM_REGISTER_CALLBACKS == 1)
        htim->OC_DelayElapsedCallback(htim);
        htim->PWM_PulseFinishedCallback(htim);
#else
        HAL_TIM_OC_DelayElapsedCallback(htim);
 80014fe:	6878      	ldr	r0, [r7, #4]
 8001500:	f000 f953 	bl	80017aa <HAL_TIM_OC_DelayElapsedCallback>
        HAL_TIM_PWM_PulseFinishedCallback(htim);
 8001504:	6878      	ldr	r0, [r7, #4]
 8001506:	f000 f962 	bl	80017ce <HAL_TIM_PWM_PulseFinishedCallback>
#endif /* USE_HAL_TIM_REGISTER_CALLBACKS */
      }
      htim->Channel = HAL_TIM_ACTIVE_CHANNEL_CLEARED;
 800150a:	687b      	ldr	r3, [r7, #4]
 800150c:	2200      	movs	r2, #0
 800150e:	771a      	strb	r2, [r3, #28]
    }
  }
  /* Capture compare 4 event */
  if (__HAL_TIM_GET_FLAG(htim, TIM_FLAG_CC4) != RESET)
 8001510:	687b      	ldr	r3, [r7, #4]
 8001512:	681b      	ldr	r3, [r3, #0]
 8001514:	691b      	ldr	r3, [r3, #16]
 8001516:	f003 0310 	and.w	r3, r3, #16
 800151a:	2b10      	cmp	r3, #16
 800151c:	d122      	bne.n	8001564 <HAL_TIM_IRQHandler+0x158>
  {
    if (__HAL_TIM_GET_IT_SOURCE(htim, TIM_IT_CC4) != RESET)
 800151e:	687b      	ldr	r3, [r7, #4]
 8001520:	681b      	ldr	r3, [r3, #0]
 8001522:	68db      	ldr	r3, [r3, #12]
 8001524:	f003 0310 	and.w	r3, r3, #16
 8001528:	2b10      	cmp	r3, #16
 800152a:	d11b      	bne.n	8001564 <HAL_TIM_IRQHandler+0x158>
    {
      __HAL_TIM_CLEAR_IT(htim, TIM_IT_CC4);
 800152c:	687b      	ldr	r3, [r7, #4]
 800152e:	681b      	ldr	r3, [r3, #0]
 8001530:	f06f 0210 	mvn.w	r2, #16
 8001534:	611a      	str	r2, [r3, #16]
      htim->Channel = HAL_TIM_ACTIVE_CHANNEL_4;
 8001536:	687b      	ldr	r3, [r7, #4]
 8001538:	2208      	movs	r2, #8
 800153a:	771a      	strb	r2, [r3, #28]
      /* Input capture event */
      if ((htim->Instance->CCMR2 & TIM_CCMR2_CC4S) != 0x00U)
 800153c:	687b      	ldr	r3, [r7, #4]
 800153e:	681b      	ldr	r3, [r3, #0]
 8001540:	69db      	ldr	r3, [r3, #28]
 8001542:	f403 7340 	and.w	r3, r3, #768	; 0x300
 8001546:	2b00      	cmp	r3, #0
 8001548:	d003      	beq.n	8001552 <HAL_TIM_IRQHandler+0x146>
      {
#if (USE_HAL_TIM_REGISTER_CALLBACKS == 1)
        htim->IC_CaptureCallback(htim);
#else
        HAL_TIM_IC_CaptureCallback(htim);
 800154a:	6878      	ldr	r0, [r7, #4]
 800154c:	f000 f936 	bl	80017bc <HAL_TIM_IC_CaptureCallback>
 8001550:	e005      	b.n	800155e <HAL_TIM_IRQHandler+0x152>
      {
#if (USE_HAL_TIM_REGISTER_CALLBACKS == 1)
        htim->OC_DelayElapsedCallback(htim);
        htim->PWM_PulseFinishedCallback(htim);
#else
        HAL_TIM_OC_DelayElapsedCallback(htim);
 8001552:	6878      	ldr	r0, [r7, #4]
 8001554:	f000 f929 	bl	80017aa <HAL_TIM_OC_DelayElapsedCallback>
        HAL_TIM_PWM_PulseFinishedCallback(htim);
 8001558:	6878      	ldr	r0, [r7, #4]
 800155a:	f000 f938 	bl	80017ce <HAL_TIM_PWM_PulseFinishedCallback>
#endif /* USE_HAL_TIM_REGISTER_CALLBACKS */
      }
      htim->Channel = HAL_TIM_ACTIVE_CHANNEL_CLEARED;
 800155e:	687b      	ldr	r3, [r7, #4]
 8001560:	2200      	movs	r2, #0
 8001562:	771a      	strb	r2, [r3, #28]
    }
  }
  /* TIM Update event */
  if (__HAL_TIM_GET_FLAG(htim, TIM_FLAG_UPDATE) != RESET)
 8001564:	687b      	ldr	r3, [r7, #4]
 8001566:	681b      	ldr	r3, [r3, #0]
 8001568:	691b      	ldr	r3, [r3, #16]
 800156a:	f003 0301 	and.w	r3, r3, #1
 800156e:	2b01      	cmp	r3, #1
 8001570:	d10e      	bne.n	8001590 <HAL_TIM_IRQHandler+0x184>
  {
    if (__HAL_TIM_GET_IT_SOURCE(htim, TIM_IT_UPDATE) != RESET)
 8001572:	687b      	ldr	r3, [r7, #4]
 8001574:	681b      	ldr	r3, [r3, #0]
 8001576:	68db      	ldr	r3, [r3, #12]
 8001578:	f003 0301 	and.w	r3, r3, #1
 800157c:	2b01      	cmp	r3, #1
 800157e:	d107      	bne.n	8001590 <HAL_TIM_IRQHandler+0x184>
    {
      __HAL_TIM_CLEAR_IT(htim, TIM_IT_UPDATE);
 8001580:	687b      	ldr	r3, [r7, #4]
 8001582:	681b      	ldr	r3, [r3, #0]
 8001584:	f06f 0201 	mvn.w	r2, #1
 8001588:	611a      	str	r2, [r3, #16]
#if (USE_HAL_TIM_REGISTER_CALLBACKS == 1)
      htim->PeriodElapsedCallback(htim);
#else
      HAL_TIM_PeriodElapsedCallback(htim);
 800158a:	6878      	ldr	r0, [r7, #4]
 800158c:	f7fe febc 	bl	8000308 <HAL_TIM_PeriodElapsedCallback>
#endif /* USE_HAL_TIM_REGISTER_CALLBACKS */
    }
  }
  /* TIM Break input event */
  if (__HAL_TIM_GET_FLAG(htim, TIM_FLAG_BREAK) != RESET)
 8001590:	687b      	ldr	r3, [r7, #4]
 8001592:	681b      	ldr	r3, [r3, #0]
 8001594:	691b      	ldr	r3, [r3, #16]
 8001596:	f003 0380 	and.w	r3, r3, #128	; 0x80
 800159a:	2b80      	cmp	r3, #128	; 0x80
 800159c:	d10e      	bne.n	80015bc <HAL_TIM_IRQHandler+0x1b0>
  {
    if (__HAL_TIM_GET_IT_SOURCE(htim, TIM_IT_BREAK) != RESET)
 800159e:	687b      	ldr	r3, [r7, #4]
 80015a0:	681b      	ldr	r3, [r3, #0]
 80015a2:	68db      	ldr	r3, [r3, #12]
 80015a4:	f003 0380 	and.w	r3, r3, #128	; 0x80
 80015a8:	2b80      	cmp	r3, #128	; 0x80
 80015aa:	d107      	bne.n	80015bc <HAL_TIM_IRQHandler+0x1b0>
    {
      __HAL_TIM_CLEAR_IT(htim, TIM_IT_BREAK);
 80015ac:	687b      	ldr	r3, [r7, #4]
 80015ae:	681b      	ldr	r3, [r3, #0]
 80015b0:	f06f 0280 	mvn.w	r2, #128	; 0x80
 80015b4:	611a      	str	r2, [r3, #16]
#if (USE_HAL_TIM_REGISTER_CALLBACKS == 1)
      htim->BreakCallback(htim);
#else
      HAL_TIMEx_BreakCallback(htim);
 80015b6:	6878      	ldr	r0, [r7, #4]
 80015b8:	f000 fa6b 	bl	8001a92 <HAL_TIMEx_BreakCallback>
#endif /* USE_HAL_TIM_REGISTER_CALLBACKS */
    }
  }
  /* TIM Trigger detection event */
  if (__HAL_TIM_GET_FLAG(htim, TIM_FLAG_TRIGGER) != RESET)
 80015bc:	687b      	ldr	r3, [r7, #4]
 80015be:	681b      	ldr	r3, [r3, #0]
 80015c0:	691b      	ldr	r3, [r3, #16]
 80015c2:	f003 0340 	and.w	r3, r3, #64	; 0x40
 80015c6:	2b40      	cmp	r3, #64	; 0x40
 80015c8:	d10e      	bne.n	80015e8 <HAL_TIM_IRQHandler+0x1dc>
  {
    if (__HAL_TIM_GET_IT_SOURCE(htim, TIM_IT_TRIGGER) != RESET)
 80015ca:	687b      	ldr	r3, [r7, #4]
 80015cc:	681b      	ldr	r3, [r3, #0]
 80015ce:	68db      	ldr	r3, [r3, #12]
 80015d0:	f003 0340 	and.w	r3, r3, #64	; 0x40
 80015d4:	2b40      	cmp	r3, #64	; 0x40
 80015d6:	d107      	bne.n	80015e8 <HAL_TIM_IRQHandler+0x1dc>
    {
      __HAL_TIM_CLEAR_IT(htim, TIM_IT_TRIGGER);
 80015d8:	687b      	ldr	r3, [r7, #4]
 80015da:	681b      	ldr	r3, [r3, #0]
 80015dc:	f06f 0240 	mvn.w	r2, #64	; 0x40
 80015e0:	611a      	str	r2, [r3, #16]
#if (USE_HAL_TIM_REGISTER_CALLBACKS == 1)
      htim->TriggerCallback(htim);
#else
      HAL_TIM_TriggerCallback(htim);
 80015e2:	6878      	ldr	r0, [r7, #4]
 80015e4:	f000 f8fc 	bl	80017e0 <HAL_TIM_TriggerCallback>
#endif /* USE_HAL_TIM_REGISTER_CALLBACKS */
    }
  }
  /* TIM commutation event */
  if (__HAL_TIM_GET_FLAG(htim, TIM_FLAG_COM) != RESET)
 80015e8:	687b      	ldr	r3, [r7, #4]
 80015ea:	681b      	ldr	r3, [r3, #0]
 80015ec:	691b      	ldr	r3, [r3, #16]
 80015ee:	f003 0320 	and.w	r3, r3, #32
 80015f2:	2b20      	cmp	r3, #32
 80015f4:	d10e      	bne.n	8001614 <HAL_TIM_IRQHandler+0x208>
  {
    if (__HAL_TIM_GET_IT_SOURCE(htim, TIM_IT_COM) != RESET)
 80015f6:	687b      	ldr	r3, [r7, #4]
 80015f8:	681b      	ldr	r3, [r3, #0]
 80015fa:	68db      	ldr	r3, [r3, #12]
 80015fc:	f003 0320 	and.w	r3, r3, #32
 8001600:	2b20      	cmp	r3, #32
 8001602:	d107      	bne.n	8001614 <HAL_TIM_IRQHandler+0x208>
    {
      __HAL_TIM_CLEAR_IT(htim, TIM_FLAG_COM);
 8001604:	687b      	ldr	r3, [r7, #4]
 8001606:	681b      	ldr	r3, [r3, #0]
 8001608:	f06f 0220 	mvn.w	r2, #32
 800160c:	611a      	str	r2, [r3, #16]
#if (USE_HAL_TIM_REGISTER_CALLBACKS == 1)
      htim->CommutationCallback(htim);
#else
      HAL_TIMEx_CommutCallback(htim);
 800160e:	6878      	ldr	r0, [r7, #4]
 8001610:	f000 fa36 	bl	8001a80 <HAL_TIMEx_CommutCallback>
#endif /* USE_HAL_TIM_REGISTER_CALLBACKS */
    }
  }
}
 8001614:	bf00      	nop
 8001616:	3708      	adds	r7, #8
 8001618:	46bd      	mov	sp, r7
 800161a:	bd80      	pop	{r7, pc}

0800161c <HAL_TIM_ConfigClockSource>:
  * @param  sClockSourceConfig pointer to a TIM_ClockConfigTypeDef structure that
  *         contains the clock source information for the TIM peripheral.
  * @retval HAL status
  */
HAL_StatusTypeDef HAL_TIM_ConfigClockSource(TIM_HandleTypeDef *htim, const TIM_ClockConfigTypeDef *sClockSourceConfig)
{
 800161c:	b580      	push	{r7, lr}
 800161e:	b084      	sub	sp, #16
 8001620:	af00      	add	r7, sp, #0
 8001622:	6078      	str	r0, [r7, #4]
 8001624:	6039      	str	r1, [r7, #0]
  HAL_StatusTypeDef status = HAL_OK;
 8001626:	2300      	movs	r3, #0
 8001628:	73fb      	strb	r3, [r7, #15]
  uint32_t tmpsmcr;

  /* Process Locked */
  __HAL_LOCK(htim);
 800162a:	687b      	ldr	r3, [r7, #4]
 800162c:	f893 303c 	ldrb.w	r3, [r3, #60]	; 0x3c
 8001630:	2b01      	cmp	r3, #1
 8001632:	d101      	bne.n	8001638 <HAL_TIM_ConfigClockSource+0x1c>
 8001634:	2302      	movs	r3, #2
 8001636:	e0b4      	b.n	80017a2 <HAL_TIM_ConfigClockSource+0x186>
 8001638:	687b      	ldr	r3, [r7, #4]
 800163a:	2201      	movs	r2, #1
 800163c:	f883 203c 	strb.w	r2, [r3, #60]	; 0x3c

  htim->State = HAL_TIM_STATE_BUSY;
 8001640:	687b      	ldr	r3, [r7, #4]
 8001642:	2202      	movs	r2, #2
 8001644:	f883 203d 	strb.w	r2, [r3, #61]	; 0x3d

  /* Check the parameters */
  assert_param(IS_TIM_CLOCKSOURCE(sClockSourceConfig->ClockSource));

  /* Reset the SMS, TS, ECE, ETPS and ETRF bits */
  tmpsmcr = htim->Instance->SMCR;
 8001648:	687b      	ldr	r3, [r7, #4]
 800164a:	681b      	ldr	r3, [r3, #0]
 800164c:	689b      	ldr	r3, [r3, #8]
 800164e:	60bb      	str	r3, [r7, #8]
  tmpsmcr &= ~(TIM_SMCR_SMS | TIM_SMCR_TS);
 8001650:	68bb      	ldr	r3, [r7, #8]
 8001652:	f023 0377 	bic.w	r3, r3, #119	; 0x77
 8001656:	60bb      	str	r3, [r7, #8]
  tmpsmcr &= ~(TIM_SMCR_ETF | TIM_SMCR_ETPS | TIM_SMCR_ECE | TIM_SMCR_ETP);
 8001658:	68bb      	ldr	r3, [r7, #8]
 800165a:	f423 437f 	bic.w	r3, r3, #65280	; 0xff00
 800165e:	60bb      	str	r3, [r7, #8]
  htim->Instance->SMCR = tmpsmcr;
 8001660:	687b      	ldr	r3, [r7, #4]
 8001662:	681b      	ldr	r3, [r3, #0]
 8001664:	68ba      	ldr	r2, [r7, #8]
 8001666:	609a      	str	r2, [r3, #8]

  switch (sClockSourceConfig->ClockSource)
 8001668:	683b      	ldr	r3, [r7, #0]
 800166a:	681b      	ldr	r3, [r3, #0]
 800166c:	f5b3 5f00 	cmp.w	r3, #8192	; 0x2000
 8001670:	d03e      	beq.n	80016f0 <HAL_TIM_ConfigClockSource+0xd4>
 8001672:	f5b3 5f00 	cmp.w	r3, #8192	; 0x2000
 8001676:	f200 8087 	bhi.w	8001788 <HAL_TIM_ConfigClockSource+0x16c>
 800167a:	f5b3 5f80 	cmp.w	r3, #4096	; 0x1000
 800167e:	f000 8086 	beq.w	800178e <HAL_TIM_ConfigClockSource+0x172>
 8001682:	f5b3 5f80 	cmp.w	r3, #4096	; 0x1000
 8001686:	d87f      	bhi.n	8001788 <HAL_TIM_ConfigClockSource+0x16c>
 8001688:	2b70      	cmp	r3, #112	; 0x70
 800168a:	d01a      	beq.n	80016c2 <HAL_TIM_ConfigClockSource+0xa6>
 800168c:	2b70      	cmp	r3, #112	; 0x70
 800168e:	d87b      	bhi.n	8001788 <HAL_TIM_ConfigClockSource+0x16c>
 8001690:	2b60      	cmp	r3, #96	; 0x60
 8001692:	d050      	beq.n	8001736 <HAL_TIM_ConfigClockSource+0x11a>
 8001694:	2b60      	cmp	r3, #96	; 0x60
 8001696:	d877      	bhi.n	8001788 <HAL_TIM_ConfigClockSource+0x16c>
 8001698:	2b50      	cmp	r3, #80	; 0x50
 800169a:	d03c      	beq.n	8001716 <HAL_TIM_ConfigClockSource+0xfa>
 800169c:	2b50      	cmp	r3, #80	; 0x50
 800169e:	d873      	bhi.n	8001788 <HAL_TIM_ConfigClockSource+0x16c>
 80016a0:	2b40      	cmp	r3, #64	; 0x40
 80016a2:	d058      	beq.n	8001756 <HAL_TIM_ConfigClockSource+0x13a>
 80016a4:	2b40      	cmp	r3, #64	; 0x40
 80016a6:	d86f      	bhi.n	8001788 <HAL_TIM_ConfigClockSource+0x16c>
 80016a8:	2b30      	cmp	r3, #48	; 0x30
 80016aa:	d064      	beq.n	8001776 <HAL_TIM_ConfigClockSource+0x15a>
 80016ac:	2b30      	cmp	r3, #48	; 0x30
 80016ae:	d86b      	bhi.n	8001788 <HAL_TIM_ConfigClockSource+0x16c>
 80016b0:	2b20      	cmp	r3, #32
 80016b2:	d060      	beq.n	8001776 <HAL_TIM_ConfigClockSource+0x15a>
 80016b4:	2b20      	cmp	r3, #32
 80016b6:	d867      	bhi.n	8001788 <HAL_TIM_ConfigClockSource+0x16c>
 80016b8:	2b00      	cmp	r3, #0
 80016ba:	d05c      	beq.n	8001776 <HAL_TIM_ConfigClockSource+0x15a>
 80016bc:	2b10      	cmp	r3, #16
 80016be:	d05a      	beq.n	8001776 <HAL_TIM_ConfigClockSource+0x15a>
 80016c0:	e062      	b.n	8001788 <HAL_TIM_ConfigClockSource+0x16c>
      assert_param(IS_TIM_CLOCKPRESCALER(sClockSourceConfig->ClockPrescaler));
      assert_param(IS_TIM_CLOCKPOLARITY(sClockSourceConfig->ClockPolarity));
      assert_param(IS_TIM_CLOCKFILTER(sClockSourceConfig->ClockFilter));

      /* Configure the ETR Clock source */
      TIM_ETR_SetConfig(htim->Instance,
 80016c2:	687b      	ldr	r3, [r7, #4]
 80016c4:	6818      	ldr	r0, [r3, #0]
 80016c6:	683b      	ldr	r3, [r7, #0]
 80016c8:	6899      	ldr	r1, [r3, #8]
 80016ca:	683b      	ldr	r3, [r7, #0]
 80016cc:	685a      	ldr	r2, [r3, #4]
 80016ce:	683b      	ldr	r3, [r7, #0]
 80016d0:	68db      	ldr	r3, [r3, #12]
 80016d2:	f000 f95e 	bl	8001992 <TIM_ETR_SetConfig>
                        sClockSourceConfig->ClockPrescaler,
                        sClockSourceConfig->ClockPolarity,
                        sClockSourceConfig->ClockFilter);

      /* Select the External clock mode1 and the ETRF trigger */
      tmpsmcr = htim->Instance->SMCR;
 80016d6:	687b      	ldr	r3, [r7, #4]
 80016d8:	681b      	ldr	r3, [r3, #0]
 80016da:	689b      	ldr	r3, [r3, #8]
 80016dc:	60bb      	str	r3, [r7, #8]
      tmpsmcr |= (TIM_SLAVEMODE_EXTERNAL1 | TIM_CLOCKSOURCE_ETRMODE1);
 80016de:	68bb      	ldr	r3, [r7, #8]
 80016e0:	f043 0377 	orr.w	r3, r3, #119	; 0x77
 80016e4:	60bb      	str	r3, [r7, #8]
      /* Write to TIMx SMCR */
      htim->Instance->SMCR = tmpsmcr;
 80016e6:	687b      	ldr	r3, [r7, #4]
 80016e8:	681b      	ldr	r3, [r3, #0]
 80016ea:	68ba      	ldr	r2, [r7, #8]
 80016ec:	609a      	str	r2, [r3, #8]
      break;
 80016ee:	e04f      	b.n	8001790 <HAL_TIM_ConfigClockSource+0x174>
      assert_param(IS_TIM_CLOCKPRESCALER(sClockSourceConfig->ClockPrescaler));
      assert_param(IS_TIM_CLOCKPOLARITY(sClockSourceConfig->ClockPolarity));
      assert_param(IS_TIM_CLOCKFILTER(sClockSourceConfig->ClockFilter));

      /* Configure the ETR Clock source */
      TIM_ETR_SetConfig(htim->Instance,
 80016f0:	687b      	ldr	r3, [r7, #4]
 80016f2:	6818      	ldr	r0, [r3, #0]
 80016f4:	683b      	ldr	r3, [r7, #0]
 80016f6:	6899      	ldr	r1, [r3, #8]
 80016f8:	683b      	ldr	r3, [r7, #0]
 80016fa:	685a      	ldr	r2, [r3, #4]
 80016fc:	683b      	ldr	r3, [r7, #0]
 80016fe:	68db      	ldr	r3, [r3, #12]
 8001700:	f000 f947 	bl	8001992 <TIM_ETR_SetConfig>
                        sClockSourceConfig->ClockPrescaler,
                        sClockSourceConfig->ClockPolarity,
                        sClockSourceConfig->ClockFilter);
      /* Enable the External clock mode2 */
      htim->Instance->SMCR |= TIM_SMCR_ECE;
 8001704:	687b      	ldr	r3, [r7, #4]
 8001706:	681b      	ldr	r3, [r3, #0]
 8001708:	689a      	ldr	r2, [r3, #8]
 800170a:	687b      	ldr	r3, [r7, #4]
 800170c:	681b      	ldr	r3, [r3, #0]
 800170e:	f442 4280 	orr.w	r2, r2, #16384	; 0x4000
 8001712:	609a      	str	r2, [r3, #8]
      break;
 8001714:	e03c      	b.n	8001790 <HAL_TIM_ConfigClockSource+0x174>

      /* Check TI1 input conditioning related parameters */
      assert_param(IS_TIM_CLOCKPOLARITY(sClockSourceConfig->ClockPolarity));
      assert_param(IS_TIM_CLOCKFILTER(sClockSourceConfig->ClockFilter));

      TIM_TI1_ConfigInputStage(htim->Instance,
 8001716:	687b      	ldr	r3, [r7, #4]
 8001718:	6818      	ldr	r0, [r3, #0]
 800171a:	683b      	ldr	r3, [r7, #0]
 800171c:	6859      	ldr	r1, [r3, #4]
 800171e:	683b      	ldr	r3, [r7, #0]
 8001720:	68db      	ldr	r3, [r3, #12]
 8001722:	461a      	mov	r2, r3
 8001724:	f000 f8be 	bl	80018a4 <TIM_TI1_ConfigInputStage>
                               sClockSourceConfig->ClockPolarity,
                               sClockSourceConfig->ClockFilter);
      TIM_ITRx_SetConfig(htim->Instance, TIM_CLOCKSOURCE_TI1);
 8001728:	687b      	ldr	r3, [r7, #4]
 800172a:	681b      	ldr	r3, [r3, #0]
 800172c:	2150      	movs	r1, #80	; 0x50
 800172e:	4618      	mov	r0, r3
 8001730:	f000 f915 	bl	800195e <TIM_ITRx_SetConfig>
      break;
 8001734:	e02c      	b.n	8001790 <HAL_TIM_ConfigClockSource+0x174>

      /* Check TI2 input conditioning related parameters */
      assert_param(IS_TIM_CLOCKPOLARITY(sClockSourceConfig->ClockPolarity));
      assert_param(IS_TIM_CLOCKFILTER(sClockSourceConfig->ClockFilter));

      TIM_TI2_ConfigInputStage(htim->Instance,
 8001736:	687b      	ldr	r3, [r7, #4]
 8001738:	6818      	ldr	r0, [r3, #0]
 800173a:	683b      	ldr	r3, [r7, #0]
 800173c:	6859      	ldr	r1, [r3, #4]
 800173e:	683b      	ldr	r3, [r7, #0]
 8001740:	68db      	ldr	r3, [r3, #12]
 8001742:	461a      	mov	r2, r3
 8001744:	f000 f8dc 	bl	8001900 <TIM_TI2_ConfigInputStage>
                               sClockSourceConfig->ClockPolarity,
                               sClockSourceConfig->ClockFilter);
      TIM_ITRx_SetConfig(htim->Instance, TIM_CLOCKSOURCE_TI2);
 8001748:	687b      	ldr	r3, [r7, #4]
 800174a:	681b      	ldr	r3, [r3, #0]
 800174c:	2160      	movs	r1, #96	; 0x60
 800174e:	4618      	mov	r0, r3
 8001750:	f000 f905 	bl	800195e <TIM_ITRx_SetConfig>
      break;
 8001754:	e01c      	b.n	8001790 <HAL_TIM_ConfigClockSource+0x174>

      /* Check TI1 input conditioning related parameters */
      assert_param(IS_TIM_CLOCKPOLARITY(sClockSourceConfig->ClockPolarity));
      assert_param(IS_TIM_CLOCKFILTER(sClockSourceConfig->ClockFilter));

      TIM_TI1_ConfigInputStage(htim->Instance,
 8001756:	687b      	ldr	r3, [r7, #4]
 8001758:	6818      	ldr	r0, [r3, #0]
 800175a:	683b      	ldr	r3, [r7, #0]
 800175c:	6859      	ldr	r1, [r3, #4]
 800175e:	683b      	ldr	r3, [r7, #0]
 8001760:	68db      	ldr	r3, [r3, #12]
 8001762:	461a      	mov	r2, r3
 8001764:	f000 f89e 	bl	80018a4 <TIM_TI1_ConfigInputStage>
                               sClockSourceConfig->ClockPolarity,
                               sClockSourceConfig->ClockFilter);
      TIM_ITRx_SetConfig(htim->Instance, TIM_CLOCKSOURCE_TI1ED);
 8001768:	687b      	ldr	r3, [r7, #4]
 800176a:	681b      	ldr	r3, [r3, #0]
 800176c:	2140      	movs	r1, #64	; 0x40
 800176e:	4618      	mov	r0, r3
 8001770:	f000 f8f5 	bl	800195e <TIM_ITRx_SetConfig>
      break;
 8001774:	e00c      	b.n	8001790 <HAL_TIM_ConfigClockSource+0x174>
    case TIM_CLOCKSOURCE_ITR3:
    {
      /* Check whether or not the timer instance supports internal trigger input */
      assert_param(IS_TIM_CLOCKSOURCE_ITRX_INSTANCE(htim->Instance));

      TIM_ITRx_SetConfig(htim->Instance, sClockSourceConfig->ClockSource);
 8001776:	687b      	ldr	r3, [r7, #4]
 8001778:	681a      	ldr	r2, [r3, #0]
 800177a:	683b      	ldr	r3, [r7, #0]
 800177c:	681b      	ldr	r3, [r3, #0]
 800177e:	4619      	mov	r1, r3
 8001780:	4610      	mov	r0, r2
 8001782:	f000 f8ec 	bl	800195e <TIM_ITRx_SetConfig>
      break;
 8001786:	e003      	b.n	8001790 <HAL_TIM_ConfigClockSource+0x174>
    }

    default:
      status = HAL_ERROR;
 8001788:	2301      	movs	r3, #1
 800178a:	73fb      	strb	r3, [r7, #15]
      break;
 800178c:	e000      	b.n	8001790 <HAL_TIM_ConfigClockSource+0x174>
      break;
 800178e:	bf00      	nop
  }
  htim->State = HAL_TIM_STATE_READY;
 8001790:	687b      	ldr	r3, [r7, #4]
 8001792:	2201      	movs	r2, #1
 8001794:	f883 203d 	strb.w	r2, [r3, #61]	; 0x3d

  __HAL_UNLOCK(htim);
 8001798:	687b      	ldr	r3, [r7, #4]
 800179a:	2200      	movs	r2, #0
 800179c:	f883 203c 	strb.w	r2, [r3, #60]	; 0x3c

  return status;
 80017a0:	7bfb      	ldrb	r3, [r7, #15]
}
 80017a2:	4618      	mov	r0, r3
 80017a4:	3710      	adds	r7, #16
 80017a6:	46bd      	mov	sp, r7
 80017a8:	bd80      	pop	{r7, pc}

080017aa <HAL_TIM_OC_DelayElapsedCallback>:
  * @brief  Output Compare callback in non-blocking mode
  * @param  htim TIM OC handle
  * @retval None
  */
__weak void HAL_TIM_OC_DelayElapsedCallback(TIM_HandleTypeDef *htim)
{
 80017aa:	b480      	push	{r7}
 80017ac:	b083      	sub	sp, #12
 80017ae:	af00      	add	r7, sp, #0
 80017b0:	6078      	str	r0, [r7, #4]
  UNUSED(htim);

  /* NOTE : This function should not be modified, when the callback is needed,
            the HAL_TIM_OC_DelayElapsedCallback could be implemented in the user file
   */
}
 80017b2:	bf00      	nop
 80017b4:	370c      	adds	r7, #12
 80017b6:	46bd      	mov	sp, r7
 80017b8:	bc80      	pop	{r7}
 80017ba:	4770      	bx	lr

080017bc <HAL_TIM_IC_CaptureCallback>:
  * @brief  Input Capture callback in non-blocking mode
  * @param  htim TIM IC handle
  * @retval None
  */
__weak void HAL_TIM_IC_CaptureCallback(TIM_HandleTypeDef *htim)
{
 80017bc:	b480      	push	{r7}
 80017be:	b083      	sub	sp, #12
 80017c0:	af00      	add	r7, sp, #0
 80017c2:	6078      	str	r0, [r7, #4]
  UNUSED(htim);

  /* NOTE : This function should not be modified, when the callback is needed,
            the HAL_TIM_IC_CaptureCallback could be implemented in the user file
   */
}
 80017c4:	bf00      	nop
 80017c6:	370c      	adds	r7, #12
 80017c8:	46bd      	mov	sp, r7
 80017ca:	bc80      	pop	{r7}
 80017cc:	4770      	bx	lr

080017ce <HAL_TIM_PWM_PulseFinishedCallback>:
  * @brief  PWM Pulse finished callback in non-blocking mode
  * @param  htim TIM handle
  * @retval None
  */
__weak void HAL_TIM_PWM_PulseFinishedCallback(TIM_HandleTypeDef *htim)
{
 80017ce:	b480      	push	{r7}
 80017d0:	b083      	sub	sp, #12
 80017d2:	af00      	add	r7, sp, #0
 80017d4:	6078      	str	r0, [r7, #4]
  UNUSED(htim);

  /* NOTE : This function should not be modified, when the callback is needed,
            the HAL_TIM_PWM_PulseFinishedCallback could be implemented in the user file
   */
}
 80017d6:	bf00      	nop
 80017d8:	370c      	adds	r7, #12
 80017da:	46bd      	mov	sp, r7
 80017dc:	bc80      	pop	{r7}
 80017de:	4770      	bx	lr

080017e0 <HAL_TIM_TriggerCallback>:
  * @brief  Hall Trigger detection callback in non-blocking mode
  * @param  htim TIM handle
  * @retval None
  */
__weak void HAL_TIM_TriggerCallback(TIM_HandleTypeDef *htim)
{
 80017e0:	b480      	push	{r7}
 80017e2:	b083      	sub	sp, #12
 80017e4:	af00      	add	r7, sp, #0
 80017e6:	6078      	str	r0, [r7, #4]
  UNUSED(htim);

  /* NOTE : This function should not be modified, when the callback is needed,
            the HAL_TIM_TriggerCallback could be implemented in the user file
   */
}
 80017e8:	bf00      	nop
 80017ea:	370c      	adds	r7, #12
 80017ec:	46bd      	mov	sp, r7
 80017ee:	bc80      	pop	{r7}
 80017f0:	4770      	bx	lr
	...

080017f4 <TIM_Base_SetConfig>:
  * @param  TIMx TIM peripheral
  * @param  Structure TIM Base configuration structure
  * @retval None
  */
void TIM_Base_SetConfig(TIM_TypeDef *TIMx, const TIM_Base_InitTypeDef *Structure)
{
 80017f4:	b480      	push	{r7}
 80017f6:	b085      	sub	sp, #20
 80017f8:	af00      	add	r7, sp, #0
 80017fa:	6078      	str	r0, [r7, #4]
 80017fc:	6039      	str	r1, [r7, #0]
  uint32_t tmpcr1;
  tmpcr1 = TIMx->CR1;
 80017fe:	687b      	ldr	r3, [r7, #4]
 8001800:	681b      	ldr	r3, [r3, #0]
 8001802:	60fb      	str	r3, [r7, #12]

  /* Set TIM Time Base Unit parameters ---------------------------------------*/
  if (IS_TIM_COUNTER_MODE_SELECT_INSTANCE(TIMx))
 8001804:	687b      	ldr	r3, [r7, #4]
 8001806:	4a25      	ldr	r2, [pc, #148]	; (800189c <TIM_Base_SetConfig+0xa8>)
 8001808:	4293      	cmp	r3, r2
 800180a:	d007      	beq.n	800181c <TIM_Base_SetConfig+0x28>
 800180c:	687b      	ldr	r3, [r7, #4]
 800180e:	f1b3 4f80 	cmp.w	r3, #1073741824	; 0x40000000
 8001812:	d003      	beq.n	800181c <TIM_Base_SetConfig+0x28>
 8001814:	687b      	ldr	r3, [r7, #4]
 8001816:	4a22      	ldr	r2, [pc, #136]	; (80018a0 <TIM_Base_SetConfig+0xac>)
 8001818:	4293      	cmp	r3, r2
 800181a:	d108      	bne.n	800182e <TIM_Base_SetConfig+0x3a>
  {
    /* Select the Counter Mode */
    tmpcr1 &= ~(TIM_CR1_DIR | TIM_CR1_CMS);
 800181c:	68fb      	ldr	r3, [r7, #12]
 800181e:	f023 0370 	bic.w	r3, r3, #112	; 0x70
 8001822:	60fb      	str	r3, [r7, #12]
    tmpcr1 |= Structure->CounterMode;
 8001824:	683b      	ldr	r3, [r7, #0]
 8001826:	685b      	ldr	r3, [r3, #4]
 8001828:	68fa      	ldr	r2, [r7, #12]
 800182a:	4313      	orrs	r3, r2
 800182c:	60fb      	str	r3, [r7, #12]
  }

  if (IS_TIM_CLOCK_DIVISION_INSTANCE(TIMx))
 800182e:	687b      	ldr	r3, [r7, #4]
 8001830:	4a1a      	ldr	r2, [pc, #104]	; (800189c <TIM_Base_SetConfig+0xa8>)
 8001832:	4293      	cmp	r3, r2
 8001834:	d007      	beq.n	8001846 <TIM_Base_SetConfig+0x52>
 8001836:	687b      	ldr	r3, [r7, #4]
 8001838:	f1b3 4f80 	cmp.w	r3, #1073741824	; 0x40000000
 800183c:	d003      	beq.n	8001846 <TIM_Base_SetConfig+0x52>
 800183e:	687b      	ldr	r3, [r7, #4]
 8001840:	4a17      	ldr	r2, [pc, #92]	; (80018a0 <TIM_Base_SetConfig+0xac>)
 8001842:	4293      	cmp	r3, r2
 8001844:	d108      	bne.n	8001858 <TIM_Base_SetConfig+0x64>
  {
    /* Set the clock division */
    tmpcr1 &= ~TIM_CR1_CKD;
 8001846:	68fb      	ldr	r3, [r7, #12]
 8001848:	f423 7340 	bic.w	r3, r3, #768	; 0x300
 800184c:	60fb      	str	r3, [r7, #12]
    tmpcr1 |= (uint32_t)Structure->ClockDivision;
 800184e:	683b      	ldr	r3, [r7, #0]
 8001850:	68db      	ldr	r3, [r3, #12]
 8001852:	68fa      	ldr	r2, [r7, #12]
 8001854:	4313      	orrs	r3, r2
 8001856:	60fb      	str	r3, [r7, #12]
  }

  /* Set the auto-reload preload */
  MODIFY_REG(tmpcr1, TIM_CR1_ARPE, Structure->AutoReloadPreload);
 8001858:	68fb      	ldr	r3, [r7, #12]
 800185a:	f023 0280 	bic.w	r2, r3, #128	; 0x80
 800185e:	683b      	ldr	r3, [r7, #0]
 8001860:	695b      	ldr	r3, [r3, #20]
 8001862:	4313      	orrs	r3, r2
 8001864:	60fb      	str	r3, [r7, #12]

  TIMx->CR1 = tmpcr1;
 8001866:	687b      	ldr	r3, [r7, #4]
 8001868:	68fa      	ldr	r2, [r7, #12]
 800186a:	601a      	str	r2, [r3, #0]

  /* Set the Autoreload value */
  TIMx->ARR = (uint32_t)Structure->Period ;
 800186c:	683b      	ldr	r3, [r7, #0]
 800186e:	689a      	ldr	r2, [r3, #8]
 8001870:	687b      	ldr	r3, [r7, #4]
 8001872:	62da      	str	r2, [r3, #44]	; 0x2c

  /* Set the Prescaler value */
  TIMx->PSC = Structure->Prescaler;
 8001874:	683b      	ldr	r3, [r7, #0]
 8001876:	681a      	ldr	r2, [r3, #0]
 8001878:	687b      	ldr	r3, [r7, #4]
 800187a:	629a      	str	r2, [r3, #40]	; 0x28

  if (IS_TIM_REPETITION_COUNTER_INSTANCE(TIMx))
 800187c:	687b      	ldr	r3, [r7, #4]
 800187e:	4a07      	ldr	r2, [pc, #28]	; (800189c <TIM_Base_SetConfig+0xa8>)
 8001880:	4293      	cmp	r3, r2
 8001882:	d103      	bne.n	800188c <TIM_Base_SetConfig+0x98>
  {
    /* Set the Repetition Counter value */
    TIMx->RCR = Structure->RepetitionCounter;
 8001884:	683b      	ldr	r3, [r7, #0]
 8001886:	691a      	ldr	r2, [r3, #16]
 8001888:	687b      	ldr	r3, [r7, #4]
 800188a:	631a      	str	r2, [r3, #48]	; 0x30
  }

  /* Generate an update event to reload the Prescaler
     and the repetition counter (only for advanced timer) value immediately */
  TIMx->EGR = TIM_EGR_UG;
 800188c:	687b      	ldr	r3, [r7, #4]
 800188e:	2201      	movs	r2, #1
 8001890:	615a      	str	r2, [r3, #20]
}
 8001892:	bf00      	nop
 8001894:	3714      	adds	r7, #20
 8001896:	46bd      	mov	sp, r7
 8001898:	bc80      	pop	{r7}
 800189a:	4770      	bx	lr
 800189c:	40012c00 	.word	0x40012c00
 80018a0:	40000400 	.word	0x40000400

080018a4 <TIM_TI1_ConfigInputStage>:
  * @param  TIM_ICFilter Specifies the Input Capture Filter.
  *          This parameter must be a value between 0x00 and 0x0F.
  * @retval None
  */
static void TIM_TI1_ConfigInputStage(TIM_TypeDef *TIMx, uint32_t TIM_ICPolarity, uint32_t TIM_ICFilter)
{
 80018a4:	b480      	push	{r7}
 80018a6:	b087      	sub	sp, #28
 80018a8:	af00      	add	r7, sp, #0
 80018aa:	60f8      	str	r0, [r7, #12]
 80018ac:	60b9      	str	r1, [r7, #8]
 80018ae:	607a      	str	r2, [r7, #4]
  uint32_t tmpccmr1;
  uint32_t tmpccer;

  /* Disable the Channel 1: Reset the CC1E Bit */
  tmpccer = TIMx->CCER;
 80018b0:	68fb      	ldr	r3, [r7, #12]
 80018b2:	6a1b      	ldr	r3, [r3, #32]
 80018b4:	617b      	str	r3, [r7, #20]
  TIMx->CCER &= ~TIM_CCER_CC1E;
 80018b6:	68fb      	ldr	r3, [r7, #12]
 80018b8:	6a1b      	ldr	r3, [r3, #32]
 80018ba:	f023 0201 	bic.w	r2, r3, #1
 80018be:	68fb      	ldr	r3, [r7, #12]
 80018c0:	621a      	str	r2, [r3, #32]
  tmpccmr1 = TIMx->CCMR1;
 80018c2:	68fb      	ldr	r3, [r7, #12]
 80018c4:	699b      	ldr	r3, [r3, #24]
 80018c6:	613b      	str	r3, [r7, #16]

  /* Set the filter */
  tmpccmr1 &= ~TIM_CCMR1_IC1F;
 80018c8:	693b      	ldr	r3, [r7, #16]
 80018ca:	f023 03f0 	bic.w	r3, r3, #240	; 0xf0
 80018ce:	613b      	str	r3, [r7, #16]
  tmpccmr1 |= (TIM_ICFilter << 4U);
 80018d0:	687b      	ldr	r3, [r7, #4]
 80018d2:	011b      	lsls	r3, r3, #4
 80018d4:	693a      	ldr	r2, [r7, #16]
 80018d6:	4313      	orrs	r3, r2
 80018d8:	613b      	str	r3, [r7, #16]

  /* Select the Polarity and set the CC1E Bit */
  tmpccer &= ~(TIM_CCER_CC1P | TIM_CCER_CC1NP);
 80018da:	697b      	ldr	r3, [r7, #20]
 80018dc:	f023 030a 	bic.w	r3, r3, #10
 80018e0:	617b      	str	r3, [r7, #20]
  tmpccer |= TIM_ICPolarity;
 80018e2:	697a      	ldr	r2, [r7, #20]
 80018e4:	68bb      	ldr	r3, [r7, #8]
 80018e6:	4313      	orrs	r3, r2
 80018e8:	617b      	str	r3, [r7, #20]

  /* Write to TIMx CCMR1 and CCER registers */
  TIMx->CCMR1 = tmpccmr1;
 80018ea:	68fb      	ldr	r3, [r7, #12]
 80018ec:	693a      	ldr	r2, [r7, #16]
 80018ee:	619a      	str	r2, [r3, #24]
  TIMx->CCER = tmpccer;
 80018f0:	68fb      	ldr	r3, [r7, #12]
 80018f2:	697a      	ldr	r2, [r7, #20]
 80018f4:	621a      	str	r2, [r3, #32]
}
 80018f6:	bf00      	nop
 80018f8:	371c      	adds	r7, #28
 80018fa:	46bd      	mov	sp, r7
 80018fc:	bc80      	pop	{r7}
 80018fe:	4770      	bx	lr

08001900 <TIM_TI2_ConfigInputStage>:
  * @param  TIM_ICFilter Specifies the Input Capture Filter.
  *          This parameter must be a value between 0x00 and 0x0F.
  * @retval None
  */
static void TIM_TI2_ConfigInputStage(TIM_TypeDef *TIMx, uint32_t TIM_ICPolarity, uint32_t TIM_ICFilter)
{
 8001900:	b480      	push	{r7}
 8001902:	b087      	sub	sp, #28
 8001904:	af00      	add	r7, sp, #0
 8001906:	60f8      	str	r0, [r7, #12]
 8001908:	60b9      	str	r1, [r7, #8]
 800190a:	607a      	str	r2, [r7, #4]
  uint32_t tmpccmr1;
  uint32_t tmpccer;

  /* Disable the Channel 2: Reset the CC2E Bit */
  tmpccer = TIMx->CCER;
 800190c:	68fb      	ldr	r3, [r7, #12]
 800190e:	6a1b      	ldr	r3, [r3, #32]
 8001910:	617b      	str	r3, [r7, #20]
  TIMx->CCER &= ~TIM_CCER_CC2E;
 8001912:	68fb      	ldr	r3, [r7, #12]
 8001914:	6a1b      	ldr	r3, [r3, #32]
 8001916:	f023 0210 	bic.w	r2, r3, #16
 800191a:	68fb      	ldr	r3, [r7, #12]
 800191c:	621a      	str	r2, [r3, #32]
  tmpccmr1 = TIMx->CCMR1;
 800191e:	68fb      	ldr	r3, [r7, #12]
 8001920:	699b      	ldr	r3, [r3, #24]
 8001922:	613b      	str	r3, [r7, #16]

  /* Set the filter */
  tmpccmr1 &= ~TIM_CCMR1_IC2F;
 8001924:	693b      	ldr	r3, [r7, #16]
 8001926:	f423 4370 	bic.w	r3, r3, #61440	; 0xf000
 800192a:	613b      	str	r3, [r7, #16]
  tmpccmr1 |= (TIM_ICFilter << 12U);
 800192c:	687b      	ldr	r3, [r7, #4]
 800192e:	031b      	lsls	r3, r3, #12
 8001930:	693a      	ldr	r2, [r7, #16]
 8001932:	4313      	orrs	r3, r2
 8001934:	613b      	str	r3, [r7, #16]

  /* Select the Polarity and set the CC2E Bit */
  tmpccer &= ~(TIM_CCER_CC2P | TIM_CCER_CC2NP);
 8001936:	697b      	ldr	r3, [r7, #20]
 8001938:	f023 03a0 	bic.w	r3, r3, #160	; 0xa0
 800193c:	617b      	str	r3, [r7, #20]
  tmpccer |= (TIM_ICPolarity << 4U);
 800193e:	68bb      	ldr	r3, [r7, #8]
 8001940:	011b      	lsls	r3, r3, #4
 8001942:	697a      	ldr	r2, [r7, #20]
 8001944:	4313      	orrs	r3, r2
 8001946:	617b      	str	r3, [r7, #20]

  /* Write to TIMx CCMR1 and CCER registers */
  TIMx->CCMR1 = tmpccmr1 ;
 8001948:	68fb      	ldr	r3, [r7, #12]
 800194a:	693a      	ldr	r2, [r7, #16]
 800194c:	619a      	str	r2, [r3, #24]
  TIMx->CCER = tmpccer;
 800194e:	68fb      	ldr	r3, [r7, #12]
 8001950:	697a      	ldr	r2, [r7, #20]
 8001952:	621a      	str	r2, [r3, #32]
}
 8001954:	bf00      	nop
 8001956:	371c      	adds	r7, #28
 8001958:	46bd      	mov	sp, r7
 800195a:	bc80      	pop	{r7}
 800195c:	4770      	bx	lr

0800195e <TIM_ITRx_SetConfig>:
  *            @arg TIM_TS_TI2FP2: Filtered Timer Input 2
  *            @arg TIM_TS_ETRF: External Trigger input
  * @retval None
  */
static void TIM_ITRx_SetConfig(TIM_TypeDef *TIMx, uint32_t InputTriggerSource)
{
 800195e:	b480      	push	{r7}
 8001960:	b085      	sub	sp, #20
 8001962:	af00      	add	r7, sp, #0
 8001964:	6078      	str	r0, [r7, #4]
 8001966:	6039      	str	r1, [r7, #0]
  uint32_t tmpsmcr;

  /* Get the TIMx SMCR register value */
  tmpsmcr = TIMx->SMCR;
 8001968:	687b      	ldr	r3, [r7, #4]
 800196a:	689b      	ldr	r3, [r3, #8]
 800196c:	60fb      	str	r3, [r7, #12]
  /* Reset the TS Bits */
  tmpsmcr &= ~TIM_SMCR_TS;
 800196e:	68fb      	ldr	r3, [r7, #12]
 8001970:	f023 0370 	bic.w	r3, r3, #112	; 0x70
 8001974:	60fb      	str	r3, [r7, #12]
  /* Set the Input Trigger source and the slave mode*/
  tmpsmcr |= (InputTriggerSource | TIM_SLAVEMODE_EXTERNAL1);
 8001976:	683a      	ldr	r2, [r7, #0]
 8001978:	68fb      	ldr	r3, [r7, #12]
 800197a:	4313      	orrs	r3, r2
 800197c:	f043 0307 	orr.w	r3, r3, #7
 8001980:	60fb      	str	r3, [r7, #12]
  /* Write to TIMx SMCR */
  TIMx->SMCR = tmpsmcr;
 8001982:	687b      	ldr	r3, [r7, #4]
 8001984:	68fa      	ldr	r2, [r7, #12]
 8001986:	609a      	str	r2, [r3, #8]
}
 8001988:	bf00      	nop
 800198a:	3714      	adds	r7, #20
 800198c:	46bd      	mov	sp, r7
 800198e:	bc80      	pop	{r7}
 8001990:	4770      	bx	lr

08001992 <TIM_ETR_SetConfig>:
  *          This parameter must be a value between 0x00 and 0x0F
  * @retval None
  */
void TIM_ETR_SetConfig(TIM_TypeDef *TIMx, uint32_t TIM_ExtTRGPrescaler,
                       uint32_t TIM_ExtTRGPolarity, uint32_t ExtTRGFilter)
{
 8001992:	b480      	push	{r7}
 8001994:	b087      	sub	sp, #28
 8001996:	af00      	add	r7, sp, #0
 8001998:	60f8      	str	r0, [r7, #12]
 800199a:	60b9      	str	r1, [r7, #8]
 800199c:	607a      	str	r2, [r7, #4]
 800199e:	603b      	str	r3, [r7, #0]
  uint32_t tmpsmcr;

  tmpsmcr = TIMx->SMCR;
 80019a0:	68fb      	ldr	r3, [r7, #12]
 80019a2:	689b      	ldr	r3, [r3, #8]
 80019a4:	617b      	str	r3, [r7, #20]

  /* Reset the ETR Bits */
  tmpsmcr &= ~(TIM_SMCR_ETF | TIM_SMCR_ETPS | TIM_SMCR_ECE | TIM_SMCR_ETP);
 80019a6:	697b      	ldr	r3, [r7, #20]
 80019a8:	f423 437f 	bic.w	r3, r3, #65280	; 0xff00
 80019ac:	617b      	str	r3, [r7, #20]

  /* Set the Prescaler, the Filter value and the Polarity */
  tmpsmcr |= (uint32_t)(TIM_ExtTRGPrescaler | (TIM_ExtTRGPolarity | (ExtTRGFilter << 8U)));
 80019ae:	683b      	ldr	r3, [r7, #0]
 80019b0:	021a      	lsls	r2, r3, #8
 80019b2:	687b      	ldr	r3, [r7, #4]
 80019b4:	431a      	orrs	r2, r3
 80019b6:	68bb      	ldr	r3, [r7, #8]
 80019b8:	4313      	orrs	r3, r2
 80019ba:	697a      	ldr	r2, [r7, #20]
 80019bc:	4313      	orrs	r3, r2
 80019be:	617b      	str	r3, [r7, #20]

  /* Write to TIMx SMCR */
  TIMx->SMCR = tmpsmcr;
 80019c0:	68fb      	ldr	r3, [r7, #12]
 80019c2:	697a      	ldr	r2, [r7, #20]
 80019c4:	609a      	str	r2, [r3, #8]
}
 80019c6:	bf00      	nop
 80019c8:	371c      	adds	r7, #28
 80019ca:	46bd      	mov	sp, r7
 80019cc:	bc80      	pop	{r7}
 80019ce:	4770      	bx	lr

080019d0 <HAL_TIMEx_MasterConfigSynchronization>:
  *         mode.
  * @retval HAL status
  */
HAL_StatusTypeDef HAL_TIMEx_MasterConfigSynchronization(TIM_HandleTypeDef *htim,
                                                        const TIM_MasterConfigTypeDef *sMasterConfig)
{
 80019d0:	b480      	push	{r7}
 80019d2:	b085      	sub	sp, #20
 80019d4:	af00      	add	r7, sp, #0
 80019d6:	6078      	str	r0, [r7, #4]
 80019d8:	6039      	str	r1, [r7, #0]
  assert_param(IS_TIM_MASTER_INSTANCE(htim->Instance));
  assert_param(IS_TIM_TRGO_SOURCE(sMasterConfig->MasterOutputTrigger));
  assert_param(IS_TIM_MSM_STATE(sMasterConfig->MasterSlaveMode));

  /* Check input state */
  __HAL_LOCK(htim);
 80019da:	687b      	ldr	r3, [r7, #4]
 80019dc:	f893 303c 	ldrb.w	r3, [r3, #60]	; 0x3c
 80019e0:	2b01      	cmp	r3, #1
 80019e2:	d101      	bne.n	80019e8 <HAL_TIMEx_MasterConfigSynchronization+0x18>
 80019e4:	2302      	movs	r3, #2
 80019e6:	e041      	b.n	8001a6c <HAL_TIMEx_MasterConfigSynchronization+0x9c>
 80019e8:	687b      	ldr	r3, [r7, #4]
 80019ea:	2201      	movs	r2, #1
 80019ec:	f883 203c 	strb.w	r2, [r3, #60]	; 0x3c

  /* Change the handler state */
  htim->State = HAL_TIM_STATE_BUSY;
 80019f0:	687b      	ldr	r3, [r7, #4]
 80019f2:	2202      	movs	r2, #2
 80019f4:	f883 203d 	strb.w	r2, [r3, #61]	; 0x3d

  /* Get the TIMx CR2 register value */
  tmpcr2 = htim->Instance->CR2;
 80019f8:	687b      	ldr	r3, [r7, #4]
 80019fa:	681b      	ldr	r3, [r3, #0]
 80019fc:	685b      	ldr	r3, [r3, #4]
 80019fe:	60fb      	str	r3, [r7, #12]

  /* Get the TIMx SMCR register value */
  tmpsmcr = htim->Instance->SMCR;
 8001a00:	687b      	ldr	r3, [r7, #4]
 8001a02:	681b      	ldr	r3, [r3, #0]
 8001a04:	689b      	ldr	r3, [r3, #8]
 8001a06:	60bb      	str	r3, [r7, #8]

  /* Reset the MMS Bits */
  tmpcr2 &= ~TIM_CR2_MMS;
 8001a08:	68fb      	ldr	r3, [r7, #12]
 8001a0a:	f023 0370 	bic.w	r3, r3, #112	; 0x70
 8001a0e:	60fb      	str	r3, [r7, #12]
  /* Select the TRGO source */
  tmpcr2 |=  sMasterConfig->MasterOutputTrigger;
 8001a10:	683b      	ldr	r3, [r7, #0]
 8001a12:	681b      	ldr	r3, [r3, #0]
 8001a14:	68fa      	ldr	r2, [r7, #12]
 8001a16:	4313      	orrs	r3, r2
 8001a18:	60fb      	str	r3, [r7, #12]

  /* Update TIMx CR2 */
  htim->Instance->CR2 = tmpcr2;
 8001a1a:	687b      	ldr	r3, [r7, #4]
 8001a1c:	681b      	ldr	r3, [r3, #0]
 8001a1e:	68fa      	ldr	r2, [r7, #12]
 8001a20:	605a      	str	r2, [r3, #4]

  if (IS_TIM_SLAVE_INSTANCE(htim->Instance))
 8001a22:	687b      	ldr	r3, [r7, #4]
 8001a24:	681b      	ldr	r3, [r3, #0]
 8001a26:	4a14      	ldr	r2, [pc, #80]	; (8001a78 <HAL_TIMEx_MasterConfigSynchronization+0xa8>)
 8001a28:	4293      	cmp	r3, r2
 8001a2a:	d009      	beq.n	8001a40 <HAL_TIMEx_MasterConfigSynchronization+0x70>
 8001a2c:	687b      	ldr	r3, [r7, #4]
 8001a2e:	681b      	ldr	r3, [r3, #0]
 8001a30:	f1b3 4f80 	cmp.w	r3, #1073741824	; 0x40000000
 8001a34:	d004      	beq.n	8001a40 <HAL_TIMEx_MasterConfigSynchronization+0x70>
 8001a36:	687b      	ldr	r3, [r7, #4]
 8001a38:	681b      	ldr	r3, [r3, #0]
 8001a3a:	4a10      	ldr	r2, [pc, #64]	; (8001a7c <HAL_TIMEx_MasterConfigSynchronization+0xac>)
 8001a3c:	4293      	cmp	r3, r2
 8001a3e:	d10c      	bne.n	8001a5a <HAL_TIMEx_MasterConfigSynchronization+0x8a>
  {
    /* Reset the MSM Bit */
    tmpsmcr &= ~TIM_SMCR_MSM;
 8001a40:	68bb      	ldr	r3, [r7, #8]
 8001a42:	f023 0380 	bic.w	r3, r3, #128	; 0x80
 8001a46:	60bb      	str	r3, [r7, #8]
    /* Set master mode */
    tmpsmcr |= sMasterConfig->MasterSlaveMode;
 8001a48:	683b      	ldr	r3, [r7, #0]
 8001a4a:	685b      	ldr	r3, [r3, #4]
 8001a4c:	68ba      	ldr	r2, [r7, #8]
 8001a4e:	4313      	orrs	r3, r2
 8001a50:	60bb      	str	r3, [r7, #8]

    /* Update TIMx SMCR */
    htim->Instance->SMCR = tmpsmcr;
 8001a52:	687b      	ldr	r3, [r7, #4]
 8001a54:	681b      	ldr	r3, [r3, #0]
 8001a56:	68ba      	ldr	r2, [r7, #8]
 8001a58:	609a      	str	r2, [r3, #8]
  }

  /* Change the htim state */
  htim->State = HAL_TIM_STATE_READY;
 8001a5a:	687b      	ldr	r3, [r7, #4]
 8001a5c:	2201      	movs	r2, #1
 8001a5e:	f883 203d 	strb.w	r2, [r3, #61]	; 0x3d

  __HAL_UNLOCK(htim);
 8001a62:	687b      	ldr	r3, [r7, #4]
 8001a64:	2200      	movs	r2, #0
 8001a66:	f883 203c 	strb.w	r2, [r3, #60]	; 0x3c

  return HAL_OK;
 8001a6a:	2300      	movs	r3, #0
}
 8001a6c:	4618      	mov	r0, r3
 8001a6e:	3714      	adds	r7, #20
 8001a70:	46bd      	mov	sp, r7
 8001a72:	bc80      	pop	{r7}
 8001a74:	4770      	bx	lr
 8001a76:	bf00      	nop
 8001a78:	40012c00 	.word	0x40012c00
 8001a7c:	40000400 	.word	0x40000400

08001a80 <HAL_TIMEx_CommutCallback>:
  * @brief  Hall commutation changed callback in non-blocking mode
  * @param  htim TIM handle
  * @retval None
  */
__weak void HAL_TIMEx_CommutCallback(TIM_HandleTypeDef *htim)
{
 8001a80:	b480      	push	{r7}
 8001a82:	b083      	sub	sp, #12
 8001a84:	af00      	add	r7, sp, #0
 8001a86:	6078      	str	r0, [r7, #4]
  UNUSED(htim);

  /* NOTE : This function should not be modified, when the callback is needed,
            the HAL_TIMEx_CommutCallback could be implemented in the user file
   */
}
 8001a88:	bf00      	nop
 8001a8a:	370c      	adds	r7, #12
 8001a8c:	46bd      	mov	sp, r7
 8001a8e:	bc80      	pop	{r7}
 8001a90:	4770      	bx	lr

08001a92 <HAL_TIMEx_BreakCallback>:
  * @brief  Hall Break detection callback in non-blocking mode
  * @param  htim TIM handle
  * @retval None
  */
__weak void HAL_TIMEx_BreakCallback(TIM_HandleTypeDef *htim)
{
 8001a92:	b480      	push	{r7}
 8001a94:	b083      	sub	sp, #12
 8001a96:	af00      	add	r7, sp, #0
 8001a98:	6078      	str	r0, [r7, #4]
  UNUSED(htim);

  /* NOTE : This function should not be modified, when the callback is needed,
            the HAL_TIMEx_BreakCallback could be implemented in the user file
   */
}
 8001a9a:	bf00      	nop
 8001a9c:	370c      	adds	r7, #12
 8001a9e:	46bd      	mov	sp, r7
 8001aa0:	bc80      	pop	{r7}
 8001aa2:	4770      	bx	lr

08001aa4 <__libc_init_array>:
 8001aa4:	b570      	push	{r4, r5, r6, lr}
 8001aa6:	2600      	movs	r6, #0
 8001aa8:	4d0c      	ldr	r5, [pc, #48]	; (8001adc <__libc_init_array+0x38>)
 8001aaa:	4c0d      	ldr	r4, [pc, #52]	; (8001ae0 <__libc_init_array+0x3c>)
 8001aac:	1b64      	subs	r4, r4, r5
 8001aae:	10a4      	asrs	r4, r4, #2
 8001ab0:	42a6      	cmp	r6, r4
 8001ab2:	d109      	bne.n	8001ac8 <__libc_init_array+0x24>
 8001ab4:	f000 f822 	bl	8001afc <_init>
 8001ab8:	2600      	movs	r6, #0
 8001aba:	4d0a      	ldr	r5, [pc, #40]	; (8001ae4 <__libc_init_array+0x40>)
 8001abc:	4c0a      	ldr	r4, [pc, #40]	; (8001ae8 <__libc_init_array+0x44>)
 8001abe:	1b64      	subs	r4, r4, r5
 8001ac0:	10a4      	asrs	r4, r4, #2
 8001ac2:	42a6      	cmp	r6, r4
 8001ac4:	d105      	bne.n	8001ad2 <__libc_init_array+0x2e>
 8001ac6:	bd70      	pop	{r4, r5, r6, pc}
 8001ac8:	f855 3b04 	ldr.w	r3, [r5], #4
 8001acc:	4798      	blx	r3
 8001ace:	3601      	adds	r6, #1
 8001ad0:	e7ee      	b.n	8001ab0 <__libc_init_array+0xc>
 8001ad2:	f855 3b04 	ldr.w	r3, [r5], #4
 8001ad6:	4798      	blx	r3
 8001ad8:	3601      	adds	r6, #1
 8001ada:	e7f2      	b.n	8001ac2 <__libc_init_array+0x1e>
 8001adc:	08001b38 	.word	0x08001b38
 8001ae0:	08001b38 	.word	0x08001b38
 8001ae4:	08001b38 	.word	0x08001b38
 8001ae8:	08001b3c 	.word	0x08001b3c

08001aec <memset>:
 8001aec:	4603      	mov	r3, r0
 8001aee:	4402      	add	r2, r0
 8001af0:	4293      	cmp	r3, r2
 8001af2:	d100      	bne.n	8001af6 <memset+0xa>
 8001af4:	4770      	bx	lr
 8001af6:	f803 1b01 	strb.w	r1, [r3], #1
 8001afa:	e7f9      	b.n	8001af0 <memset+0x4>

08001afc <_init>:
 8001afc:	b5f8      	push	{r3, r4, r5, r6, r7, lr}
 8001afe:	bf00      	nop
 8001b00:	bcf8      	pop	{r3, r4, r5, r6, r7}
 8001b02:	bc08      	pop	{r3}
 8001b04:	469e      	mov	lr, r3
 8001b06:	4770      	bx	lr

08001b08 <_fini>:
 8001b08:	b5f8      	push	{r3, r4, r5, r6, r7, lr}
 8001b0a:	bf00      	nop
 8001b0c:	bcf8      	pop	{r3, r4, r5, r6, r7}
 8001b0e:	bc08      	pop	{r3}
 8001b10:	469e      	mov	lr, r3
 8001b12:	4770      	bx	lr
